
redis_module.so:     file format elf64-x86-64


Disassembly of section .plt:

0000000000007000 <.plt>:
    7000:	ff 35 02 80 00 00    	push   QWORD PTR [rip+0x8002]        # f008 <RedisModule_OnLoad@@Base+0x4be9>
    7006:	f2 ff 25 03 80 00 00 	bnd jmp QWORD PTR [rip+0x8003]        # f010 <RedisModule_OnLoad@@Base+0x4bf1>
    700d:	0f 1f 00             	nop    DWORD PTR [rax]
    7010:	f3 0f 1e fa          	endbr64
    7014:	68 00 00 00 00       	push   0x0
    7019:	f2 e9 e1 ff ff ff    	bnd jmp 7000 <strncpy@plt-0x120>
    701f:	90                   	nop
    7020:	f3 0f 1e fa          	endbr64
    7024:	68 01 00 00 00       	push   0x1
    7029:	f2 e9 d1 ff ff ff    	bnd jmp 7000 <strncpy@plt-0x120>
    702f:	90                   	nop
    7030:	f3 0f 1e fa          	endbr64
    7034:	68 02 00 00 00       	push   0x2
    7039:	f2 e9 c1 ff ff ff    	bnd jmp 7000 <strncpy@plt-0x120>
    703f:	90                   	nop
    7040:	f3 0f 1e fa          	endbr64
    7044:	68 03 00 00 00       	push   0x3
    7049:	f2 e9 b1 ff ff ff    	bnd jmp 7000 <strncpy@plt-0x120>
    704f:	90                   	nop
    7050:	f3 0f 1e fa          	endbr64
    7054:	68 04 00 00 00       	push   0x4
    7059:	f2 e9 a1 ff ff ff    	bnd jmp 7000 <strncpy@plt-0x120>
    705f:	90                   	nop
    7060:	f3 0f 1e fa          	endbr64
    7064:	68 05 00 00 00       	push   0x5
    7069:	f2 e9 91 ff ff ff    	bnd jmp 7000 <strncpy@plt-0x120>
    706f:	90                   	nop
    7070:	f3 0f 1e fa          	endbr64
    7074:	68 06 00 00 00       	push   0x6
    7079:	f2 e9 81 ff ff ff    	bnd jmp 7000 <strncpy@plt-0x120>
    707f:	90                   	nop
    7080:	f3 0f 1e fa          	endbr64
    7084:	68 07 00 00 00       	push   0x7
    7089:	f2 e9 71 ff ff ff    	bnd jmp 7000 <strncpy@plt-0x120>
    708f:	90                   	nop
    7090:	f3 0f 1e fa          	endbr64
    7094:	68 08 00 00 00       	push   0x8
    7099:	f2 e9 61 ff ff ff    	bnd jmp 7000 <strncpy@plt-0x120>
    709f:	90                   	nop
    70a0:	f3 0f 1e fa          	endbr64
    70a4:	68 09 00 00 00       	push   0x9
    70a9:	f2 e9 51 ff ff ff    	bnd jmp 7000 <strncpy@plt-0x120>
    70af:	90                   	nop
    70b0:	f3 0f 1e fa          	endbr64
    70b4:	68 0a 00 00 00       	push   0xa
    70b9:	f2 e9 41 ff ff ff    	bnd jmp 7000 <strncpy@plt-0x120>
    70bf:	90                   	nop
    70c0:	f3 0f 1e fa          	endbr64
    70c4:	68 0b 00 00 00       	push   0xb
    70c9:	f2 e9 31 ff ff ff    	bnd jmp 7000 <strncpy@plt-0x120>
    70cf:	90                   	nop
    70d0:	f3 0f 1e fa          	endbr64
    70d4:	68 0c 00 00 00       	push   0xc
    70d9:	f2 e9 21 ff ff ff    	bnd jmp 7000 <strncpy@plt-0x120>
    70df:	90                   	nop
    70e0:	f3 0f 1e fa          	endbr64
    70e4:	68 0d 00 00 00       	push   0xd
    70e9:	f2 e9 11 ff ff ff    	bnd jmp 7000 <strncpy@plt-0x120>
    70ef:	90                   	nop
    70f0:	f3 0f 1e fa          	endbr64
    70f4:	68 0e 00 00 00       	push   0xe
    70f9:	f2 e9 01 ff ff ff    	bnd jmp 7000 <strncpy@plt-0x120>
    70ff:	90                   	nop
    7100:	f3 0f 1e fa          	endbr64
    7104:	68 0f 00 00 00       	push   0xf
    7109:	f2 e9 f1 fe ff ff    	bnd jmp 7000 <strncpy@plt-0x120>
    710f:	90                   	nop
    7110:	f3 0f 1e fa          	endbr64
    7114:	68 10 00 00 00       	push   0x10
    7119:	f2 e9 e1 fe ff ff    	bnd jmp 7000 <strncpy@plt-0x120>
    711f:	90                   	nop

Disassembly of section .plt.sec:

0000000000007120 <strncpy@plt>:
    7120:	f3 0f 1e fa          	endbr64
    7124:	f2 ff 25 ed 7e 00 00 	bnd jmp QWORD PTR [rip+0x7eed]        # f018 <strncpy@GLIBC_2.2.5>
    712b:	0f 1f 44 00 00       	nop    DWORD PTR [rax+rax*1+0x0]

0000000000007130 <EVP_aes_256_cbc@plt>:
    7130:	f3 0f 1e fa          	endbr64
    7134:	f2 ff 25 e5 7e 00 00 	bnd jmp QWORD PTR [rip+0x7ee5]        # f020 <EVP_aes_256_cbc@Base>
    713b:	0f 1f 44 00 00       	nop    DWORD PTR [rax+rax*1+0x0]

0000000000007140 <strlen@plt>:
    7140:	f3 0f 1e fa          	endbr64
    7144:	f2 ff 25 dd 7e 00 00 	bnd jmp QWORD PTR [rip+0x7edd]        # f028 <strlen@GLIBC_2.2.5>
    714b:	0f 1f 44 00 00       	nop    DWORD PTR [rax+rax*1+0x0]

0000000000007150 <__stack_chk_fail@plt>:
    7150:	f3 0f 1e fa          	endbr64
    7154:	f2 ff 25 d5 7e 00 00 	bnd jmp QWORD PTR [rip+0x7ed5]        # f030 <__stack_chk_fail@GLIBC_2.4>
    715b:	0f 1f 44 00 00       	nop    DWORD PTR [rax+rax*1+0x0]

0000000000007160 <pclose@plt>:
    7160:	f3 0f 1e fa          	endbr64
    7164:	f2 ff 25 cd 7e 00 00 	bnd jmp QWORD PTR [rip+0x7ecd]        # f038 <pclose@GLIBC_2.2.5>
    716b:	0f 1f 44 00 00       	nop    DWORD PTR [rax+rax*1+0x0]

0000000000007170 <snprintf@plt>:
    7170:	f3 0f 1e fa          	endbr64
    7174:	f2 ff 25 c5 7e 00 00 	bnd jmp QWORD PTR [rip+0x7ec5]        # f040 <snprintf@GLIBC_2.2.5>
    717b:	0f 1f 44 00 00       	nop    DWORD PTR [rax+rax*1+0x0]

0000000000007180 <fgets@plt>:
    7180:	f3 0f 1e fa          	endbr64
    7184:	f2 ff 25 bd 7e 00 00 	bnd jmp QWORD PTR [rip+0x7ebd]        # f048 <fgets@GLIBC_2.2.5>
    718b:	0f 1f 44 00 00       	nop    DWORD PTR [rax+rax*1+0x0]

0000000000007190 <EVP_CIPHER_CTX_free@plt>:
    7190:	f3 0f 1e fa          	endbr64
    7194:	f2 ff 25 b5 7e 00 00 	bnd jmp QWORD PTR [rip+0x7eb5]        # f050 <EVP_CIPHER_CTX_free@Base>
    719b:	0f 1f 44 00 00       	nop    DWORD PTR [rax+rax*1+0x0]

00000000000071a0 <EVP_EncryptUpdate@plt>:
    71a0:	f3 0f 1e fa          	endbr64
    71a4:	f2 ff 25 ad 7e 00 00 	bnd jmp QWORD PTR [rip+0x7ead]        # f058 <EVP_EncryptUpdate@Base>
    71ab:	0f 1f 44 00 00       	nop    DWORD PTR [rax+rax*1+0x0]

00000000000071b0 <malloc@plt>:
    71b0:	f3 0f 1e fa          	endbr64
    71b4:	f2 ff 25 a5 7e 00 00 	bnd jmp QWORD PTR [rip+0x7ea5]        # f060 <malloc@GLIBC_2.2.5>
    71bb:	0f 1f 44 00 00       	nop    DWORD PTR [rax+rax*1+0x0]

00000000000071c0 <__isoc99_sscanf@plt>:
    71c0:	f3 0f 1e fa          	endbr64
    71c4:	f2 ff 25 9d 7e 00 00 	bnd jmp QWORD PTR [rip+0x7e9d]        # f068 <__isoc99_sscanf@GLIBC_2.7>
    71cb:	0f 1f 44 00 00       	nop    DWORD PTR [rax+rax*1+0x0]

00000000000071d0 <EVP_EncryptFinal_ex@plt>:
    71d0:	f3 0f 1e fa          	endbr64
    71d4:	f2 ff 25 95 7e 00 00 	bnd jmp QWORD PTR [rip+0x7e95]        # f070 <EVP_EncryptFinal_ex@Base>
    71db:	0f 1f 44 00 00       	nop    DWORD PTR [rax+rax*1+0x0]

00000000000071e0 <EVP_EncryptInit_ex@plt>:
    71e0:	f3 0f 1e fa          	endbr64
    71e4:	f2 ff 25 8d 7e 00 00 	bnd jmp QWORD PTR [rip+0x7e8d]        # f078 <EVP_EncryptInit_ex@Base>
    71eb:	0f 1f 44 00 00       	nop    DWORD PTR [rax+rax*1+0x0]

00000000000071f0 <realloc@plt>:
    71f0:	f3 0f 1e fa          	endbr64
    71f4:	f2 ff 25 85 7e 00 00 	bnd jmp QWORD PTR [rip+0x7e85]        # f080 <realloc@GLIBC_2.2.5>
    71fb:	0f 1f 44 00 00       	nop    DWORD PTR [rax+rax*1+0x0]

0000000000007200 <EVP_CIPHER_CTX_new@plt>:
    7200:	f3 0f 1e fa          	endbr64
    7204:	f2 ff 25 7d 7e 00 00 	bnd jmp QWORD PTR [rip+0x7e7d]        # f088 <EVP_CIPHER_CTX_new@Base>
    720b:	0f 1f 44 00 00       	nop    DWORD PTR [rax+rax*1+0x0]

0000000000007210 <popen@plt>:
    7210:	f3 0f 1e fa          	endbr64
    7214:	f2 ff 25 75 7e 00 00 	bnd jmp QWORD PTR [rip+0x7e75]        # f090 <popen@GLIBC_2.2.5>
    721b:	0f 1f 44 00 00       	nop    DWORD PTR [rax+rax*1+0x0]

0000000000007220 <strcat@plt>:
    7220:	f3 0f 1e fa          	endbr64
    7224:	f2 ff 25 6d 7e 00 00 	bnd jmp QWORD PTR [rip+0x7e6d]        # f098 <strcat@GLIBC_2.2.5>
    722b:	0f 1f 44 00 00       	nop    DWORD PTR [rax+rax*1+0x0]

Disassembly of section .text:

0000000000007230 <hexStringToBytes@@Base-0x2cc5>:
    7230:	f3 0f 1e fa          	endbr64
    7234:	55                   	push   rbp
    7235:	48 89 e5             	mov    rbp,rsp
    7238:	48 83 ec 30          	sub    rsp,0x30
    723c:	48 89 7d e8          	mov    QWORD PTR [rbp-0x18],rdi
    7240:	48 89 75 e0          	mov    QWORD PTR [rbp-0x20],rsi
    7244:	89 55 dc             	mov    DWORD PTR [rbp-0x24],edx
    7247:	89 4d d8             	mov    DWORD PTR [rbp-0x28],ecx
    724a:	48 8b 45 e8          	mov    rax,QWORD PTR [rbp-0x18]
    724e:	48 8b 00             	mov    rax,QWORD PTR [rax]
    7251:	48 89 45 f8          	mov    QWORD PTR [rbp-0x8],rax
    7255:	48 8b 55 f8          	mov    rdx,QWORD PTR [rbp-0x8]
    7259:	48 8d 05 18 86 00 00 	lea    rax,[rip+0x8618]        # f878 <RedisModule_GetApi@@Base>
    7260:	48 89 10             	mov    QWORD PTR [rax],rdx
    7263:	48 8d 05 0e 86 00 00 	lea    rax,[rip+0x860e]        # f878 <RedisModule_GetApi@@Base>
    726a:	48 8b 00             	mov    rax,QWORD PTR [rax]
    726d:	48 8d 15 f4 82 00 00 	lea    rdx,[rip+0x82f4]        # f568 <RedisModule_Alloc@@Base>
    7274:	48 89 d6             	mov    rsi,rdx
    7277:	48 8d 15 c2 3e 00 00 	lea    rdx,[rip+0x3ec2]        # b140 <RedisModule_OnLoad@@Base+0xd21>
    727e:	48 89 d7             	mov    rdi,rdx
    7281:	ff d0                	call   rax
    7283:	48 8d 05 ee 85 00 00 	lea    rax,[rip+0x85ee]        # f878 <RedisModule_GetApi@@Base>
    728a:	48 8b 00             	mov    rax,QWORD PTR [rax]
    728d:	48 8d 15 ec 83 00 00 	lea    rdx,[rip+0x83ec]        # f680 <RedisModule_TryAlloc@@Base>
    7294:	48 89 d6             	mov    rsi,rdx
    7297:	48 8d 15 b4 3e 00 00 	lea    rdx,[rip+0x3eb4]        # b152 <RedisModule_OnLoad@@Base+0xd33>
    729e:	48 89 d7             	mov    rdi,rdx
    72a1:	ff d0                	call   rax
    72a3:	48 8d 05 ce 85 00 00 	lea    rax,[rip+0x85ce]        # f878 <RedisModule_GetApi@@Base>
    72aa:	48 8b 00             	mov    rax,QWORD PTR [rax]
    72ad:	48 8d 15 34 80 00 00 	lea    rdx,[rip+0x8034]        # f2e8 <RedisModule_Calloc@@Base>
    72b4:	48 89 d6             	mov    rsi,rdx
    72b7:	48 8d 15 a9 3e 00 00 	lea    rdx,[rip+0x3ea9]        # b167 <RedisModule_OnLoad@@Base+0xd48>
    72be:	48 89 d7             	mov    rdi,rdx
    72c1:	ff d0                	call   rax
    72c3:	48 8d 05 ae 85 00 00 	lea    rax,[rip+0x85ae]        # f878 <RedisModule_GetApi@@Base>
    72ca:	48 8b 00             	mov    rax,QWORD PTR [rax]
    72cd:	48 8d 15 74 7f 00 00 	lea    rdx,[rip+0x7f74]        # f248 <RedisModule_Free@@Base>
    72d4:	48 89 d6             	mov    rsi,rdx
    72d7:	48 8d 15 9c 3e 00 00 	lea    rdx,[rip+0x3e9c]        # b17a <RedisModule_OnLoad@@Base+0xd5b>
    72de:	48 89 d7             	mov    rdi,rdx
    72e1:	ff d0                	call   rax
    72e3:	48 8d 05 8e 85 00 00 	lea    rax,[rip+0x858e]        # f878 <RedisModule_GetApi@@Base>
    72ea:	48 8b 00             	mov    rax,QWORD PTR [rax]
    72ed:	48 8d 15 dc 80 00 00 	lea    rdx,[rip+0x80dc]        # f3d0 <RedisModule_Realloc@@Base>
    72f4:	48 89 d6             	mov    rsi,rdx
    72f7:	48 8d 15 8d 3e 00 00 	lea    rdx,[rip+0x3e8d]        # b18b <RedisModule_OnLoad@@Base+0xd6c>
    72fe:	48 89 d7             	mov    rdi,rdx
    7301:	ff d0                	call   rax
    7303:	48 8d 05 6e 85 00 00 	lea    rax,[rip+0x856e]        # f878 <RedisModule_GetApi@@Base>
    730a:	48 8b 00             	mov    rax,QWORD PTR [rax]
    730d:	48 8d 15 bc 7d 00 00 	lea    rdx,[rip+0x7dbc]        # f0d0 <RedisModule_Strdup@@Base>
    7314:	48 89 d6             	mov    rsi,rdx
    7317:	48 8d 15 81 3e 00 00 	lea    rdx,[rip+0x3e81]        # b19f <RedisModule_OnLoad@@Base+0xd80>
    731e:	48 89 d7             	mov    rdi,rdx
    7321:	ff d0                	call   rax
    7323:	48 8d 05 4e 85 00 00 	lea    rax,[rip+0x854e]        # f878 <RedisModule_GetApi@@Base>
    732a:	48 8b 00             	mov    rax,QWORD PTR [rax]
    732d:	48 8d 15 5c 86 00 00 	lea    rdx,[rip+0x865c]        # f990 <RedisModule_CreateCommand@@Base>
    7334:	48 89 d6             	mov    rsi,rdx
    7337:	48 8d 15 74 3e 00 00 	lea    rdx,[rip+0x3e74]        # b1b2 <RedisModule_OnLoad@@Base+0xd93>
    733e:	48 89 d7             	mov    rdi,rdx
    7341:	ff d0                	call   rax
    7343:	48 8d 05 2e 85 00 00 	lea    rax,[rip+0x852e]        # f878 <RedisModule_GetApi@@Base>
    734a:	48 8b 00             	mov    rax,QWORD PTR [rax]
    734d:	48 8d 15 64 87 00 00 	lea    rdx,[rip+0x8764]        # fab8 <RedisModule_GetCommand@@Base>
    7354:	48 89 d6             	mov    rsi,rdx
    7357:	48 8d 15 6e 3e 00 00 	lea    rdx,[rip+0x3e6e]        # b1cc <RedisModule_OnLoad@@Base+0xdad>
    735e:	48 89 d7             	mov    rdi,rdx
    7361:	ff d0                	call   rax
    7363:	48 8d 05 0e 85 00 00 	lea    rax,[rip+0x850e]        # f878 <RedisModule_GetApi@@Base>
    736a:	48 8b 00             	mov    rax,QWORD PTR [rax]
    736d:	48 8d 15 3c 87 00 00 	lea    rdx,[rip+0x873c]        # fab0 <RedisModule_CreateSubcommand@@Base>
    7374:	48 89 d6             	mov    rsi,rdx
    7377:	48 8d 15 65 3e 00 00 	lea    rdx,[rip+0x3e65]        # b1e3 <RedisModule_OnLoad@@Base+0xdc4>
    737e:	48 89 d7             	mov    rdi,rdx
    7381:	ff d0                	call   rax
    7383:	48 8d 05 ee 84 00 00 	lea    rax,[rip+0x84ee]        # f878 <RedisModule_GetApi@@Base>
    738a:	48 8b 00             	mov    rax,QWORD PTR [rax]
    738d:	48 8d 15 9c 80 00 00 	lea    rdx,[rip+0x809c]        # f430 <RedisModule_SetCommandInfo@@Base>
    7394:	48 89 d6             	mov    rsi,rdx
    7397:	48 8d 15 62 3e 00 00 	lea    rdx,[rip+0x3e62]        # b200 <RedisModule_OnLoad@@Base+0xde1>
    739e:	48 89 d7             	mov    rdi,rdx
    73a1:	ff d0                	call   rax
    73a3:	48 8d 05 ce 84 00 00 	lea    rax,[rip+0x84ce]        # f878 <RedisModule_GetApi@@Base>
    73aa:	48 8b 00             	mov    rax,QWORD PTR [rax]
    73ad:	48 8d 15 6c 85 00 00 	lea    rdx,[rip+0x856c]        # f920 <RedisModule_SetCommandACLCategories@@Base>
    73b4:	48 89 d6             	mov    rsi,rdx
    73b7:	48 8d 15 62 3e 00 00 	lea    rdx,[rip+0x3e62]        # b220 <RedisModule_OnLoad@@Base+0xe01>
    73be:	48 89 d7             	mov    rdi,rdx
    73c1:	ff d0                	call   rax
    73c3:	48 8d 05 ae 84 00 00 	lea    rax,[rip+0x84ae]        # f878 <RedisModule_GetApi@@Base>
    73ca:	48 8b 00             	mov    rax,QWORD PTR [rax]
    73cd:	48 8d 15 fc 86 00 00 	lea    rdx,[rip+0x86fc]        # fad0 <RedisModule_AddACLCategory@@Base>
    73d4:	48 89 d6             	mov    rsi,rdx
    73d7:	48 8d 15 66 3e 00 00 	lea    rdx,[rip+0x3e66]        # b244 <RedisModule_OnLoad@@Base+0xe25>
    73de:	48 89 d7             	mov    rdi,rdx
    73e1:	ff d0                	call   rax
    73e3:	48 8d 05 8e 84 00 00 	lea    rax,[rip+0x848e]        # f878 <RedisModule_GetApi@@Base>
    73ea:	48 8b 00             	mov    rax,QWORD PTR [rax]
    73ed:	48 8d 15 84 7f 00 00 	lea    rdx,[rip+0x7f84]        # f378 <RedisModule_SetModuleAttribs@@Base>
    73f4:	48 89 d6             	mov    rsi,rdx
    73f7:	48 8d 15 61 3e 00 00 	lea    rdx,[rip+0x3e61]        # b25f <RedisModule_OnLoad@@Base+0xe40>
    73fe:	48 89 d7             	mov    rdi,rdx
    7401:	ff d0                	call   rax
    7403:	48 8d 05 6e 84 00 00 	lea    rax,[rip+0x846e]        # f878 <RedisModule_GetApi@@Base>
    740a:	48 8b 00             	mov    rax,QWORD PTR [rax]
    740d:	48 8d 15 14 7d 00 00 	lea    rdx,[rip+0x7d14]        # f128 <RedisModule_IsModuleNameBusy@@Base>
    7414:	48 89 d6             	mov    rsi,rdx
    7417:	48 8d 15 5e 3e 00 00 	lea    rdx,[rip+0x3e5e]        # b27c <RedisModule_OnLoad@@Base+0xe5d>
    741e:	48 89 d7             	mov    rdi,rdx
    7421:	ff d0                	call   rax
    7423:	48 8d 05 4e 84 00 00 	lea    rax,[rip+0x844e]        # f878 <RedisModule_GetApi@@Base>
    742a:	48 8b 00             	mov    rax,QWORD PTR [rax]
    742d:	48 8d 15 c4 81 00 00 	lea    rdx,[rip+0x81c4]        # f5f8 <RedisModule_WrongArity@@Base>
    7434:	48 89 d6             	mov    rsi,rdx
    7437:	48 8d 15 5b 3e 00 00 	lea    rdx,[rip+0x3e5b]        # b299 <RedisModule_OnLoad@@Base+0xe7a>
    743e:	48 89 d7             	mov    rdi,rdx
    7441:	ff d0                	call   rax
    7443:	48 8d 05 2e 84 00 00 	lea    rax,[rip+0x842e]        # f878 <RedisModule_GetApi@@Base>
    744a:	48 8b 00             	mov    rax,QWORD PTR [rax]
    744d:	48 8d 15 c4 7e 00 00 	lea    rdx,[rip+0x7ec4]        # f318 <RedisModule_ReplyWithLongLong@@Base>
    7454:	48 89 d6             	mov    rsi,rdx
    7457:	48 8d 15 52 3e 00 00 	lea    rdx,[rip+0x3e52]        # b2b0 <RedisModule_OnLoad@@Base+0xe91>
    745e:	48 89 d7             	mov    rdi,rdx
    7461:	ff d0                	call   rax
    7463:	48 8d 05 0e 84 00 00 	lea    rax,[rip+0x840e]        # f878 <RedisModule_GetApi@@Base>
    746a:	48 8b 00             	mov    rax,QWORD PTR [rax]
    746d:	48 8d 15 6c 84 00 00 	lea    rdx,[rip+0x846c]        # f8e0 <RedisModule_ReplyWithError@@Base>
    7474:	48 89 d6             	mov    rsi,rdx
    7477:	48 8d 15 50 3e 00 00 	lea    rdx,[rip+0x3e50]        # b2ce <RedisModule_OnLoad@@Base+0xeaf>
    747e:	48 89 d7             	mov    rdi,rdx
    7481:	ff d0                	call   rax
    7483:	48 8d 05 ee 83 00 00 	lea    rax,[rip+0x83ee]        # f878 <RedisModule_GetApi@@Base>
    748a:	48 8b 00             	mov    rax,QWORD PTR [rax]
    748d:	48 8d 15 5c 7c 00 00 	lea    rdx,[rip+0x7c5c]        # f0f0 <RedisModule_ReplyWithErrorFormat@@Base>
    7494:	48 89 d6             	mov    rsi,rdx
    7497:	48 8d 15 52 3e 00 00 	lea    rdx,[rip+0x3e52]        # b2f0 <RedisModule_OnLoad@@Base+0xed1>
    749e:	48 89 d7             	mov    rdi,rdx
    74a1:	ff d0                	call   rax
    74a3:	48 8d 05 ce 83 00 00 	lea    rax,[rip+0x83ce]        # f878 <RedisModule_GetApi@@Base>
    74aa:	48 8b 00             	mov    rax,QWORD PTR [rax]
    74ad:	48 8d 15 e4 7e 00 00 	lea    rdx,[rip+0x7ee4]        # f398 <RedisModule_ReplyWithSimpleString@@Base>
    74b4:	48 89 d6             	mov    rsi,rdx
    74b7:	48 8d 15 5a 3e 00 00 	lea    rdx,[rip+0x3e5a]        # b318 <RedisModule_OnLoad@@Base+0xef9>
    74be:	48 89 d7             	mov    rdi,rdx
    74c1:	ff d0                	call   rax
    74c3:	48 8d 05 ae 83 00 00 	lea    rax,[rip+0x83ae]        # f878 <RedisModule_GetApi@@Base>
    74ca:	48 8b 00             	mov    rax,QWORD PTR [rax]
    74cd:	48 8d 15 c4 85 00 00 	lea    rdx,[rip+0x85c4]        # fa98 <RedisModule_ReplyWithArray@@Base>
    74d4:	48 89 d6             	mov    rsi,rdx
    74d7:	48 8d 15 5c 3e 00 00 	lea    rdx,[rip+0x3e5c]        # b33a <RedisModule_OnLoad@@Base+0xf1b>
    74de:	48 89 d7             	mov    rdi,rdx
    74e1:	ff d0                	call   rax
    74e3:	48 8d 05 8e 83 00 00 	lea    rax,[rip+0x838e]        # f878 <RedisModule_GetApi@@Base>
    74ea:	48 8b 00             	mov    rax,QWORD PTR [rax]
    74ed:	48 8d 15 84 7f 00 00 	lea    rdx,[rip+0x7f84]        # f478 <RedisModule_ReplyWithMap@@Base>
    74f4:	48 89 d6             	mov    rsi,rdx
    74f7:	48 8d 15 57 3e 00 00 	lea    rdx,[rip+0x3e57]        # b355 <RedisModule_OnLoad@@Base+0xf36>
    74fe:	48 89 d7             	mov    rdi,rdx
    7501:	ff d0                	call   rax
    7503:	48 8d 05 6e 83 00 00 	lea    rax,[rip+0x836e]        # f878 <RedisModule_GetApi@@Base>
    750a:	48 8b 00             	mov    rax,QWORD PTR [rax]
    750d:	48 8d 15 1c 81 00 00 	lea    rdx,[rip+0x811c]        # f630 <RedisModule_ReplyWithSet@@Base>
    7514:	48 89 d6             	mov    rsi,rdx
    7517:	48 8d 15 50 3e 00 00 	lea    rdx,[rip+0x3e50]        # b36e <RedisModule_OnLoad@@Base+0xf4f>
    751e:	48 89 d7             	mov    rdi,rdx
    7521:	ff d0                	call   rax
    7523:	48 8d 05 4e 83 00 00 	lea    rax,[rip+0x834e]        # f878 <RedisModule_GetApi@@Base>
    752a:	48 8b 00             	mov    rax,QWORD PTR [rax]
    752d:	48 8d 15 ac 85 00 00 	lea    rdx,[rip+0x85ac]        # fae0 <RedisModule_ReplyWithAttribute@@Base>
    7534:	48 89 d6             	mov    rsi,rdx
    7537:	48 8d 15 4a 3e 00 00 	lea    rdx,[rip+0x3e4a]        # b388 <RedisModule_OnLoad@@Base+0xf69>
    753e:	48 89 d7             	mov    rdi,rdx
    7541:	ff d0                	call   rax
    7543:	48 8d 05 2e 83 00 00 	lea    rax,[rip+0x832e]        # f878 <RedisModule_GetApi@@Base>
    754a:	48 8b 00             	mov    rax,QWORD PTR [rax]
    754d:	48 8d 15 64 83 00 00 	lea    rdx,[rip+0x8364]        # f8b8 <RedisModule_ReplyWithNullArray@@Base>
    7554:	48 89 d6             	mov    rsi,rdx
    7557:	48 8d 15 4a 3e 00 00 	lea    rdx,[rip+0x3e4a]        # b3a8 <RedisModule_OnLoad@@Base+0xf89>
    755e:	48 89 d7             	mov    rdi,rdx
    7561:	ff d0                	call   rax
    7563:	48 8d 05 0e 83 00 00 	lea    rax,[rip+0x830e]        # f878 <RedisModule_GetApi@@Base>
    756a:	48 8b 00             	mov    rax,QWORD PTR [rax]
    756d:	48 8d 15 64 83 00 00 	lea    rdx,[rip+0x8364]        # f8d8 <RedisModule_ReplyWithEmptyArray@@Base>
    7574:	48 89 d6             	mov    rsi,rdx
    7577:	48 8d 15 4a 3e 00 00 	lea    rdx,[rip+0x3e4a]        # b3c8 <RedisModule_OnLoad@@Base+0xfa9>
    757e:	48 89 d7             	mov    rdi,rdx
    7581:	ff d0                	call   rax
    7583:	48 8d 05 ee 82 00 00 	lea    rax,[rip+0x82ee]        # f878 <RedisModule_GetApi@@Base>
    758a:	48 8b 00             	mov    rax,QWORD PTR [rax]
    758d:	48 8d 15 0c 7b 00 00 	lea    rdx,[rip+0x7b0c]        # f0a0 <RedisModule_ReplySetArrayLength@@Base>
    7594:	48 89 d6             	mov    rsi,rdx
    7597:	48 8d 15 4a 3e 00 00 	lea    rdx,[rip+0x3e4a]        # b3e8 <RedisModule_OnLoad@@Base+0xfc9>
    759e:	48 89 d7             	mov    rdi,rdx
    75a1:	ff d0                	call   rax
    75a3:	48 8d 05 ce 82 00 00 	lea    rax,[rip+0x82ce]        # f878 <RedisModule_GetApi@@Base>
    75aa:	48 8b 00             	mov    rax,QWORD PTR [rax]
    75ad:	48 8d 15 14 82 00 00 	lea    rdx,[rip+0x8214]        # f7c8 <RedisModule_ReplySetMapLength@@Base>
    75b4:	48 89 d6             	mov    rsi,rdx
    75b7:	48 8d 15 4a 3e 00 00 	lea    rdx,[rip+0x3e4a]        # b408 <RedisModule_OnLoad@@Base+0xfe9>
    75be:	48 89 d7             	mov    rdi,rdx
    75c1:	ff d0                	call   rax
    75c3:	48 8d 05 ae 82 00 00 	lea    rax,[rip+0x82ae]        # f878 <RedisModule_GetApi@@Base>
    75ca:	48 8b 00             	mov    rax,QWORD PTR [rax]
    75cd:	48 8d 15 b4 85 00 00 	lea    rdx,[rip+0x85b4]        # fb88 <RedisModule_ReplySetSetLength@@Base>
    75d4:	48 89 d6             	mov    rsi,rdx
    75d7:	48 8d 15 48 3e 00 00 	lea    rdx,[rip+0x3e48]        # b426 <RedisModule_OnLoad@@Base+0x1007>
    75de:	48 89 d7             	mov    rdi,rdx
    75e1:	ff d0                	call   rax
    75e3:	48 8d 05 8e 82 00 00 	lea    rax,[rip+0x828e]        # f878 <RedisModule_GetApi@@Base>
    75ea:	48 8b 00             	mov    rax,QWORD PTR [rax]
    75ed:	48 8d 15 f4 7f 00 00 	lea    rdx,[rip+0x7ff4]        # f5e8 <RedisModule_ReplySetAttributeLength@@Base>
    75f4:	48 89 d6             	mov    rsi,rdx
    75f7:	48 8d 15 4a 3e 00 00 	lea    rdx,[rip+0x3e4a]        # b448 <RedisModule_OnLoad@@Base+0x1029>
    75fe:	48 89 d7             	mov    rdi,rdx
    7601:	ff d0                	call   rax
    7603:	48 8d 05 6e 82 00 00 	lea    rax,[rip+0x826e]        # f878 <RedisModule_GetApi@@Base>
    760a:	48 8b 00             	mov    rax,QWORD PTR [rax]
    760d:	48 8d 15 dc 7d 00 00 	lea    rdx,[rip+0x7ddc]        # f3f0 <RedisModule_ReplySetPushLength@@Base>
    7614:	48 89 d6             	mov    rsi,rdx
    7617:	48 8d 15 52 3e 00 00 	lea    rdx,[rip+0x3e52]        # b470 <RedisModule_OnLoad@@Base+0x1051>
    761e:	48 89 d7             	mov    rdi,rdx
    7621:	ff d0                	call   rax
    7623:	48 8d 05 4e 82 00 00 	lea    rax,[rip+0x824e]        # f878 <RedisModule_GetApi@@Base>
    762a:	48 8b 00             	mov    rax,QWORD PTR [rax]
    762d:	48 8d 15 c4 7d 00 00 	lea    rdx,[rip+0x7dc4]        # f3f8 <RedisModule_ReplyWithStringBuffer@@Base>
    7634:	48 89 d6             	mov    rsi,rdx
    7637:	48 8d 15 52 3e 00 00 	lea    rdx,[rip+0x3e52]        # b490 <RedisModule_OnLoad@@Base+0x1071>
    763e:	48 89 d7             	mov    rdi,rdx
    7641:	ff d0                	call   rax
    7643:	48 8d 05 2e 82 00 00 	lea    rax,[rip+0x822e]        # f878 <RedisModule_GetApi@@Base>
    764a:	48 8b 00             	mov    rax,QWORD PTR [rax]
    764d:	48 8d 15 34 81 00 00 	lea    rdx,[rip+0x8134]        # f788 <RedisModule_ReplyWithCString@@Base>
    7654:	48 89 d6             	mov    rsi,rdx
    7657:	48 8d 15 54 3e 00 00 	lea    rdx,[rip+0x3e54]        # b4b2 <RedisModule_OnLoad@@Base+0x1093>
    765e:	48 89 d7             	mov    rdi,rdx
    7661:	ff d0                	call   rax
    7663:	48 8d 05 0e 82 00 00 	lea    rax,[rip+0x820e]        # f878 <RedisModule_GetApi@@Base>
    766a:	48 8b 00             	mov    rax,QWORD PTR [rax]
    766d:	48 8d 15 3c 81 00 00 	lea    rdx,[rip+0x813c]        # f7b0 <RedisModule_ReplyWithString@@Base>
    7674:	48 89 d6             	mov    rsi,rdx
    7677:	48 8d 15 51 3e 00 00 	lea    rdx,[rip+0x3e51]        # b4cf <RedisModule_OnLoad@@Base+0x10b0>
    767e:	48 89 d7             	mov    rdi,rdx
    7681:	ff d0                	call   rax
    7683:	48 8d 05 ee 81 00 00 	lea    rax,[rip+0x81ee]        # f878 <RedisModule_GetApi@@Base>
    768a:	48 8b 00             	mov    rax,QWORD PTR [rax]
    768d:	48 8d 15 f4 81 00 00 	lea    rdx,[rip+0x81f4]        # f888 <RedisModule_ReplyWithEmptyString@@Base>
    7694:	48 89 d6             	mov    rsi,rdx
    7697:	48 8d 15 52 3e 00 00 	lea    rdx,[rip+0x3e52]        # b4f0 <RedisModule_OnLoad@@Base+0x10d1>
    769e:	48 89 d7             	mov    rdi,rdx
    76a1:	ff d0                	call   rax
    76a3:	48 8d 05 ce 81 00 00 	lea    rax,[rip+0x81ce]        # f878 <RedisModule_GetApi@@Base>
    76aa:	48 8b 00             	mov    rax,QWORD PTR [rax]
    76ad:	48 8d 15 04 80 00 00 	lea    rdx,[rip+0x8004]        # f6b8 <RedisModule_ReplyWithVerbatimString@@Base>
    76b4:	48 89 d6             	mov    rsi,rdx
    76b7:	48 8d 15 5a 3e 00 00 	lea    rdx,[rip+0x3e5a]        # b518 <RedisModule_OnLoad@@Base+0x10f9>
    76be:	48 89 d7             	mov    rdi,rdx
    76c1:	ff d0                	call   rax
    76c3:	48 8d 05 ae 81 00 00 	lea    rax,[rip+0x81ae]        # f878 <RedisModule_GetApi@@Base>
    76ca:	48 8b 00             	mov    rax,QWORD PTR [rax]
    76cd:	48 8d 15 b4 7f 00 00 	lea    rdx,[rip+0x7fb4]        # f688 <RedisModule_ReplyWithVerbatimStringType@@Base>
    76d4:	48 89 d6             	mov    rsi,rdx
    76d7:	48 8d 15 62 3e 00 00 	lea    rdx,[rip+0x3e62]        # b540 <RedisModule_OnLoad@@Base+0x1121>
    76de:	48 89 d7             	mov    rdi,rdx
    76e1:	ff d0                	call   rax
    76e3:	48 8d 05 8e 81 00 00 	lea    rax,[rip+0x818e]        # f878 <RedisModule_GetApi@@Base>
    76ea:	48 8b 00             	mov    rax,QWORD PTR [rax]
    76ed:	48 8d 15 b4 84 00 00 	lea    rdx,[rip+0x84b4]        # fba8 <RedisModule_ReplyWithNull@@Base>
    76f4:	48 89 d6             	mov    rsi,rdx
    76f7:	48 8d 15 6a 3e 00 00 	lea    rdx,[rip+0x3e6a]        # b568 <RedisModule_OnLoad@@Base+0x1149>
    76fe:	48 89 d7             	mov    rdi,rdx
    7701:	ff d0                	call   rax
    7703:	48 8d 05 6e 81 00 00 	lea    rax,[rip+0x816e]        # f878 <RedisModule_GetApi@@Base>
    770a:	48 8b 00             	mov    rax,QWORD PTR [rax]
    770d:	48 8d 15 2c 81 00 00 	lea    rdx,[rip+0x812c]        # f840 <RedisModule_ReplyWithBool@@Base>
    7714:	48 89 d6             	mov    rsi,rdx
    7717:	48 8d 15 64 3e 00 00 	lea    rdx,[rip+0x3e64]        # b582 <RedisModule_OnLoad@@Base+0x1163>
    771e:	48 89 d7             	mov    rdi,rdx
    7721:	ff d0                	call   rax
    7723:	48 8d 05 4e 81 00 00 	lea    rax,[rip+0x814e]        # f878 <RedisModule_GetApi@@Base>
    772a:	48 8b 00             	mov    rax,QWORD PTR [rax]
    772d:	48 8d 15 dc 83 00 00 	lea    rdx,[rip+0x83dc]        # fb10 <RedisModule_ReplyWithCallReply@@Base>
    7734:	48 89 d6             	mov    rsi,rdx
    7737:	48 8d 15 62 3e 00 00 	lea    rdx,[rip+0x3e62]        # b5a0 <RedisModule_OnLoad@@Base+0x1181>
    773e:	48 89 d7             	mov    rdi,rdx
    7741:	ff d0                	call   rax
    7743:	48 8d 05 2e 81 00 00 	lea    rax,[rip+0x812e]        # f878 <RedisModule_GetApi@@Base>
    774a:	48 8b 00             	mov    rax,QWORD PTR [rax]
    774d:	48 8d 15 0c 7f 00 00 	lea    rdx,[rip+0x7f0c]        # f660 <RedisModule_ReplyWithDouble@@Base>
    7754:	48 89 d6             	mov    rsi,rdx
    7757:	48 8d 15 61 3e 00 00 	lea    rdx,[rip+0x3e61]        # b5bf <RedisModule_OnLoad@@Base+0x11a0>
    775e:	48 89 d7             	mov    rdi,rdx
    7761:	ff d0                	call   rax
    7763:	48 8d 05 0e 81 00 00 	lea    rax,[rip+0x810e]        # f878 <RedisModule_GetApi@@Base>
    776a:	48 8b 00             	mov    rax,QWORD PTR [rax]
    776d:	48 8d 15 54 7a 00 00 	lea    rdx,[rip+0x7a54]        # f1c8 <RedisModule_ReplyWithBigNumber@@Base>
    7774:	48 89 d6             	mov    rsi,rdx
    7777:	48 8d 15 62 3e 00 00 	lea    rdx,[rip+0x3e62]        # b5e0 <RedisModule_OnLoad@@Base+0x11c1>
    777e:	48 89 d7             	mov    rdi,rdx
    7781:	ff d0                	call   rax
    7783:	48 8d 05 ee 80 00 00 	lea    rax,[rip+0x80ee]        # f878 <RedisModule_GetApi@@Base>
    778a:	48 8b 00             	mov    rax,QWORD PTR [rax]
    778d:	48 8d 15 bc 79 00 00 	lea    rdx,[rip+0x79bc]        # f150 <RedisModule_ReplyWithLongDouble@@Base>
    7794:	48 89 d6             	mov    rsi,rdx
    7797:	48 8d 15 62 3e 00 00 	lea    rdx,[rip+0x3e62]        # b600 <RedisModule_OnLoad@@Base+0x11e1>
    779e:	48 89 d7             	mov    rdi,rdx
    77a1:	ff d0                	call   rax
    77a3:	48 8d 05 ce 80 00 00 	lea    rax,[rip+0x80ce]        # f878 <RedisModule_GetApi@@Base>
    77aa:	48 8b 00             	mov    rax,QWORD PTR [rax]
    77ad:	48 8d 15 2c 7e 00 00 	lea    rdx,[rip+0x7e2c]        # f5e0 <RedisModule_GetSelectedDb@@Base>
    77b4:	48 89 d6             	mov    rsi,rdx
    77b7:	48 8d 15 62 3e 00 00 	lea    rdx,[rip+0x3e62]        # b620 <RedisModule_OnLoad@@Base+0x1201>
    77be:	48 89 d7             	mov    rdi,rdx
    77c1:	ff d0                	call   rax
    77c3:	48 8d 05 ae 80 00 00 	lea    rax,[rip+0x80ae]        # f878 <RedisModule_GetApi@@Base>
    77ca:	48 8b 00             	mov    rax,QWORD PTR [rax]
    77cd:	48 8d 15 64 7b 00 00 	lea    rdx,[rip+0x7b64]        # f338 <RedisModule_SelectDb@@Base>
    77d4:	48 89 d6             	mov    rsi,rdx
    77d7:	48 8d 15 5c 3e 00 00 	lea    rdx,[rip+0x3e5c]        # b63a <RedisModule_OnLoad@@Base+0x121b>
    77de:	48 89 d7             	mov    rdi,rdx
    77e1:	ff d0                	call   rax
    77e3:	48 8d 05 8e 80 00 00 	lea    rax,[rip+0x808e]        # f878 <RedisModule_GetApi@@Base>
    77ea:	48 8b 00             	mov    rax,QWORD PTR [rax]
    77ed:	48 8d 15 1c 7a 00 00 	lea    rdx,[rip+0x7a1c]        # f210 <RedisModule_KeyExists@@Base>
    77f4:	48 89 d6             	mov    rsi,rdx
    77f7:	48 8d 15 51 3e 00 00 	lea    rdx,[rip+0x3e51]        # b64f <RedisModule_OnLoad@@Base+0x1230>
    77fe:	48 89 d7             	mov    rdi,rdx
    7801:	ff d0                	call   rax
    7803:	48 8d 05 6e 80 00 00 	lea    rax,[rip+0x806e]        # f878 <RedisModule_GetApi@@Base>
    780a:	48 8b 00             	mov    rax,QWORD PTR [rax]
    780d:	48 8d 15 24 7d 00 00 	lea    rdx,[rip+0x7d24]        # f538 <RedisModule_OpenKey@@Base>
    7814:	48 89 d6             	mov    rsi,rdx
    7817:	48 8d 15 47 3e 00 00 	lea    rdx,[rip+0x3e47]        # b665 <RedisModule_OnLoad@@Base+0x1246>
    781e:	48 89 d7             	mov    rdi,rdx
    7821:	ff d0                	call   rax
    7823:	48 8d 05 4e 80 00 00 	lea    rax,[rip+0x804e]        # f878 <RedisModule_GetApi@@Base>
    782a:	48 8b 00             	mov    rax,QWORD PTR [rax]
    782d:	48 8d 15 84 7b 00 00 	lea    rdx,[rip+0x7b84]        # f3b8 <RedisModule_GetOpenKeyModesAll@@Base>
    7834:	48 89 d6             	mov    rsi,rdx
    7837:	48 8d 15 42 3e 00 00 	lea    rdx,[rip+0x3e42]        # b680 <RedisModule_OnLoad@@Base+0x1261>
    783e:	48 89 d7             	mov    rdi,rdx
    7841:	ff d0                	call   rax
    7843:	48 8d 05 2e 80 00 00 	lea    rax,[rip+0x802e]        # f878 <RedisModule_GetApi@@Base>
    784a:	48 8b 00             	mov    rax,QWORD PTR [rax]
    784d:	48 8d 15 24 82 00 00 	lea    rdx,[rip+0x8224]        # fa78 <RedisModule_CloseKey@@Base>
    7854:	48 89 d6             	mov    rsi,rdx
    7857:	48 8d 15 41 3e 00 00 	lea    rdx,[rip+0x3e41]        # b69f <RedisModule_OnLoad@@Base+0x1280>
    785e:	48 89 d7             	mov    rdi,rdx
    7861:	ff d0                	call   rax
    7863:	48 8d 05 0e 80 00 00 	lea    rax,[rip+0x800e]        # f878 <RedisModule_GetApi@@Base>
    786a:	48 8b 00             	mov    rax,QWORD PTR [rax]
    786d:	48 8d 15 9c 7b 00 00 	lea    rdx,[rip+0x7b9c]        # f410 <RedisModule_KeyType@@Base>
    7874:	48 89 d6             	mov    rsi,rdx
    7877:	48 8d 15 36 3e 00 00 	lea    rdx,[rip+0x3e36]        # b6b4 <RedisModule_OnLoad@@Base+0x1295>
    787e:	48 89 d7             	mov    rdi,rdx
    7881:	ff d0                	call   rax
    7883:	48 8d 05 ee 7f 00 00 	lea    rax,[rip+0x7fee]        # f878 <RedisModule_GetApi@@Base>
    788a:	48 8b 00             	mov    rax,QWORD PTR [rax]
    788d:	48 8d 15 ac 7c 00 00 	lea    rdx,[rip+0x7cac]        # f540 <RedisModule_ValueLength@@Base>
    7894:	48 89 d6             	mov    rsi,rdx
    7897:	48 8d 15 2a 3e 00 00 	lea    rdx,[rip+0x3e2a]        # b6c8 <RedisModule_OnLoad@@Base+0x12a9>
    789e:	48 89 d7             	mov    rdi,rdx
    78a1:	ff d0                	call   rax
    78a3:	48 8d 05 ce 7f 00 00 	lea    rax,[rip+0x7fce]        # f878 <RedisModule_GetApi@@Base>
    78aa:	48 8b 00             	mov    rax,QWORD PTR [rax]
    78ad:	48 8d 15 24 7c 00 00 	lea    rdx,[rip+0x7c24]        # f4d8 <RedisModule_ListPush@@Base>
    78b4:	48 89 d6             	mov    rsi,rdx
    78b7:	48 8d 15 22 3e 00 00 	lea    rdx,[rip+0x3e22]        # b6e0 <RedisModule_OnLoad@@Base+0x12c1>
    78be:	48 89 d7             	mov    rdi,rdx
    78c1:	ff d0                	call   rax
    78c3:	48 8d 05 ae 7f 00 00 	lea    rax,[rip+0x7fae]        # f878 <RedisModule_GetApi@@Base>
    78ca:	48 8b 00             	mov    rax,QWORD PTR [rax]
    78cd:	48 8d 15 44 7e 00 00 	lea    rdx,[rip+0x7e44]        # f718 <RedisModule_ListPop@@Base>
    78d4:	48 89 d6             	mov    rsi,rdx
    78d7:	48 8d 15 17 3e 00 00 	lea    rdx,[rip+0x3e17]        # b6f5 <RedisModule_OnLoad@@Base+0x12d6>
    78de:	48 89 d7             	mov    rdi,rdx
    78e1:	ff d0                	call   rax
    78e3:	48 8d 05 8e 7f 00 00 	lea    rax,[rip+0x7f8e]        # f878 <RedisModule_GetApi@@Base>
    78ea:	48 8b 00             	mov    rax,QWORD PTR [rax]
    78ed:	48 8d 15 54 81 00 00 	lea    rdx,[rip+0x8154]        # fa48 <RedisModule_ListGet@@Base>
    78f4:	48 89 d6             	mov    rsi,rdx
    78f7:	48 8d 15 0b 3e 00 00 	lea    rdx,[rip+0x3e0b]        # b709 <RedisModule_OnLoad@@Base+0x12ea>
    78fe:	48 89 d7             	mov    rdi,rdx
    7901:	ff d0                	call   rax
    7903:	48 8d 05 6e 7f 00 00 	lea    rax,[rip+0x7f6e]        # f878 <RedisModule_GetApi@@Base>
    790a:	48 8b 00             	mov    rax,QWORD PTR [rax]
    790d:	48 8d 15 64 80 00 00 	lea    rdx,[rip+0x8064]        # f978 <RedisModule_ListSet@@Base>
    7914:	48 89 d6             	mov    rsi,rdx
    7917:	48 8d 15 ff 3d 00 00 	lea    rdx,[rip+0x3dff]        # b71d <RedisModule_OnLoad@@Base+0x12fe>
    791e:	48 89 d7             	mov    rdi,rdx
    7921:	ff d0                	call   rax
    7923:	48 8d 05 4e 7f 00 00 	lea    rax,[rip+0x7f4e]        # f878 <RedisModule_GetApi@@Base>
    792a:	48 8b 00             	mov    rax,QWORD PTR [rax]
    792d:	48 8d 15 6c 7b 00 00 	lea    rdx,[rip+0x7b6c]        # f4a0 <RedisModule_ListInsert@@Base>
    7934:	48 89 d6             	mov    rsi,rdx
    7937:	48 8d 15 f3 3d 00 00 	lea    rdx,[rip+0x3df3]        # b731 <RedisModule_OnLoad@@Base+0x1312>
    793e:	48 89 d7             	mov    rdi,rdx
    7941:	ff d0                	call   rax
    7943:	48 8d 05 2e 7f 00 00 	lea    rax,[rip+0x7f2e]        # f878 <RedisModule_GetApi@@Base>
    794a:	48 8b 00             	mov    rax,QWORD PTR [rax]
    794d:	48 8d 15 1c 7a 00 00 	lea    rdx,[rip+0x7a1c]        # f370 <RedisModule_ListDelete@@Base>
    7954:	48 89 d6             	mov    rsi,rdx
    7957:	48 8d 15 ea 3d 00 00 	lea    rdx,[rip+0x3dea]        # b748 <RedisModule_OnLoad@@Base+0x1329>
    795e:	48 89 d7             	mov    rdi,rdx
    7961:	ff d0                	call   rax
    7963:	48 8d 05 0e 7f 00 00 	lea    rax,[rip+0x7f0e]        # f878 <RedisModule_GetApi@@Base>
    796a:	48 8b 00             	mov    rax,QWORD PTR [rax]
    796d:	48 8d 15 14 7b 00 00 	lea    rdx,[rip+0x7b14]        # f488 <RedisModule_StringToLongLong@@Base>
    7974:	48 89 d6             	mov    rsi,rdx
    7977:	48 8d 15 e1 3d 00 00 	lea    rdx,[rip+0x3de1]        # b75f <RedisModule_OnLoad@@Base+0x1340>
    797e:	48 89 d7             	mov    rdi,rdx
    7981:	ff d0                	call   rax
    7983:	48 8d 05 ee 7e 00 00 	lea    rax,[rip+0x7eee]        # f878 <RedisModule_GetApi@@Base>
    798a:	48 8b 00             	mov    rax,QWORD PTR [rax]
    798d:	48 8d 15 f4 78 00 00 	lea    rdx,[rip+0x78f4]        # f288 <RedisModule_StringToULongLong@@Base>
    7994:	48 89 d6             	mov    rsi,rdx
    7997:	48 8d 15 de 3d 00 00 	lea    rdx,[rip+0x3dde]        # b77c <RedisModule_OnLoad@@Base+0x135d>
    799e:	48 89 d7             	mov    rdi,rdx
    79a1:	ff d0                	call   rax
    79a3:	48 8d 05 ce 7e 00 00 	lea    rax,[rip+0x7ece]        # f878 <RedisModule_GetApi@@Base>
    79aa:	48 8b 00             	mov    rax,QWORD PTR [rax]
    79ad:	48 8d 15 fc 78 00 00 	lea    rdx,[rip+0x78fc]        # f2b0 <RedisModule_StringToDouble@@Base>
    79b4:	48 89 d6             	mov    rsi,rdx
    79b7:	48 8d 15 dc 3d 00 00 	lea    rdx,[rip+0x3ddc]        # b79a <RedisModule_OnLoad@@Base+0x137b>
    79be:	48 89 d7             	mov    rdi,rdx
    79c1:	ff d0                	call   rax
    79c3:	48 8d 05 ae 7e 00 00 	lea    rax,[rip+0x7eae]        # f878 <RedisModule_GetApi@@Base>
    79ca:	48 8b 00             	mov    rax,QWORD PTR [rax]
    79cd:	48 8d 15 a4 81 00 00 	lea    rdx,[rip+0x81a4]        # fb78 <RedisModule_StringToLongDouble@@Base>
    79d4:	48 89 d6             	mov    rsi,rdx
    79d7:	48 8d 15 da 3d 00 00 	lea    rdx,[rip+0x3dda]        # b7b8 <RedisModule_OnLoad@@Base+0x1399>
    79de:	48 89 d7             	mov    rdi,rdx
    79e1:	ff d0                	call   rax
    79e3:	48 8d 05 8e 7e 00 00 	lea    rax,[rip+0x7e8e]        # f878 <RedisModule_GetApi@@Base>
    79ea:	48 8b 00             	mov    rax,QWORD PTR [rax]
    79ed:	48 8d 15 14 79 00 00 	lea    rdx,[rip+0x7914]        # f308 <RedisModule_StringToStreamID@@Base>
    79f4:	48 89 d6             	mov    rsi,rdx
    79f7:	48 8d 15 d9 3d 00 00 	lea    rdx,[rip+0x3dd9]        # b7d7 <RedisModule_OnLoad@@Base+0x13b8>
    79fe:	48 89 d7             	mov    rdi,rdx
    7a01:	ff d0                	call   rax
    7a03:	48 8d 05 6e 7e 00 00 	lea    rax,[rip+0x7e6e]        # f878 <RedisModule_GetApi@@Base>
    7a0a:	48 8b 00             	mov    rax,QWORD PTR [rax]
    7a0d:	48 8d 15 9c 81 00 00 	lea    rdx,[rip+0x819c]        # fbb0 <RedisModule_Call@@Base>
    7a14:	48 89 d6             	mov    rsi,rdx
    7a17:	48 8d 15 d6 3d 00 00 	lea    rdx,[rip+0x3dd6]        # b7f4 <RedisModule_OnLoad@@Base+0x13d5>
    7a1e:	48 89 d7             	mov    rdi,rdx
    7a21:	ff d0                	call   rax
    7a23:	48 8d 05 4e 7e 00 00 	lea    rax,[rip+0x7e4e]        # f878 <RedisModule_GetApi@@Base>
    7a2a:	48 8b 00             	mov    rax,QWORD PTR [rax]
    7a2d:	48 8d 15 fc 76 00 00 	lea    rdx,[rip+0x76fc]        # f130 <RedisModule_CallReplyProto@@Base>
    7a34:	48 89 d6             	mov    rsi,rdx
    7a37:	48 8d 15 c7 3d 00 00 	lea    rdx,[rip+0x3dc7]        # b805 <RedisModule_OnLoad@@Base+0x13e6>
    7a3e:	48 89 d7             	mov    rdi,rdx
    7a41:	ff d0                	call   rax
    7a43:	48 8d 05 2e 7e 00 00 	lea    rax,[rip+0x7e2e]        # f878 <RedisModule_GetApi@@Base>
    7a4a:	48 8b 00             	mov    rax,QWORD PTR [rax]
    7a4d:	48 8d 15 b4 7f 00 00 	lea    rdx,[rip+0x7fb4]        # fa08 <RedisModule_FreeCallReply@@Base>
    7a54:	48 89 d6             	mov    rsi,rdx
    7a57:	48 8d 15 c2 3d 00 00 	lea    rdx,[rip+0x3dc2]        # b820 <RedisModule_OnLoad@@Base+0x1401>
    7a5e:	48 89 d7             	mov    rdi,rdx
    7a61:	ff d0                	call   rax
    7a63:	48 8d 05 0e 7e 00 00 	lea    rax,[rip+0x7e0e]        # f878 <RedisModule_GetApi@@Base>
    7a6a:	48 8b 00             	mov    rax,QWORD PTR [rax]
    7a6d:	48 8d 15 44 7f 00 00 	lea    rdx,[rip+0x7f44]        # f9b8 <RedisModule_CallReplyInteger@@Base>
    7a74:	48 89 d6             	mov    rsi,rdx
    7a77:	48 8d 15 bc 3d 00 00 	lea    rdx,[rip+0x3dbc]        # b83a <RedisModule_OnLoad@@Base+0x141b>
    7a7e:	48 89 d7             	mov    rdi,rdx
    7a81:	ff d0                	call   rax
    7a83:	48 8d 05 ee 7d 00 00 	lea    rax,[rip+0x7dee]        # f878 <RedisModule_GetApi@@Base>
    7a8a:	48 8b 00             	mov    rax,QWORD PTR [rax]
    7a8d:	48 8d 15 2c 79 00 00 	lea    rdx,[rip+0x792c]        # f3c0 <RedisModule_CallReplyDouble@@Base>
    7a94:	48 89 d6             	mov    rsi,rdx
    7a97:	48 8d 15 b9 3d 00 00 	lea    rdx,[rip+0x3db9]        # b857 <RedisModule_OnLoad@@Base+0x1438>
    7a9e:	48 89 d7             	mov    rdi,rdx
    7aa1:	ff d0                	call   rax
    7aa3:	48 8d 05 ce 7d 00 00 	lea    rax,[rip+0x7dce]        # f878 <RedisModule_GetApi@@Base>
    7aaa:	48 8b 00             	mov    rax,QWORD PTR [rax]
    7aad:	48 8d 15 24 7b 00 00 	lea    rdx,[rip+0x7b24]        # f5d8 <RedisModule_CallReplyBool@@Base>
    7ab4:	48 89 d6             	mov    rsi,rdx
    7ab7:	48 8d 15 b5 3d 00 00 	lea    rdx,[rip+0x3db5]        # b873 <RedisModule_OnLoad@@Base+0x1454>
    7abe:	48 89 d7             	mov    rdi,rdx
    7ac1:	ff d0                	call   rax
    7ac3:	48 8d 05 ae 7d 00 00 	lea    rax,[rip+0x7dae]        # f878 <RedisModule_GetApi@@Base>
    7aca:	48 8b 00             	mov    rax,QWORD PTR [rax]
    7acd:	48 8d 15 4c 7f 00 00 	lea    rdx,[rip+0x7f4c]        # fa20 <RedisModule_CallReplyBigNumber@@Base>
    7ad4:	48 89 d6             	mov    rsi,rdx
    7ad7:	48 8d 15 b2 3d 00 00 	lea    rdx,[rip+0x3db2]        # b890 <RedisModule_OnLoad@@Base+0x1471>
    7ade:	48 89 d7             	mov    rdi,rdx
    7ae1:	ff d0                	call   rax
    7ae3:	48 8d 05 8e 7d 00 00 	lea    rax,[rip+0x7d8e]        # f878 <RedisModule_GetApi@@Base>
    7aea:	48 8b 00             	mov    rax,QWORD PTR [rax]
    7aed:	48 8d 15 6c 7e 00 00 	lea    rdx,[rip+0x7e6c]        # f960 <RedisModule_CallReplyVerbatim@@Base>
    7af4:	48 89 d6             	mov    rsi,rdx
    7af7:	48 8d 15 b1 3d 00 00 	lea    rdx,[rip+0x3db1]        # b8af <RedisModule_OnLoad@@Base+0x1490>
    7afe:	48 89 d7             	mov    rdi,rdx
    7b01:	ff d0                	call   rax
    7b03:	48 8d 05 6e 7d 00 00 	lea    rax,[rip+0x7d6e]        # f878 <RedisModule_GetApi@@Base>
    7b0a:	48 8b 00             	mov    rax,QWORD PTR [rax]
    7b0d:	48 8d 15 14 7b 00 00 	lea    rdx,[rip+0x7b14]        # f628 <RedisModule_CallReplySetElement@@Base>
    7b14:	48 89 d6             	mov    rsi,rdx
    7b17:	48 8d 15 b2 3d 00 00 	lea    rdx,[rip+0x3db2]        # b8d0 <RedisModule_OnLoad@@Base+0x14b1>
    7b1e:	48 89 d7             	mov    rdi,rdx
    7b21:	ff d0                	call   rax
    7b23:	48 8d 05 4e 7d 00 00 	lea    rax,[rip+0x7d4e]        # f878 <RedisModule_GetApi@@Base>
    7b2a:	48 8b 00             	mov    rax,QWORD PTR [rax]
    7b2d:	48 8d 15 4c 7c 00 00 	lea    rdx,[rip+0x7c4c]        # f780 <RedisModule_CallReplyMapElement@@Base>
    7b34:	48 89 d6             	mov    rsi,rdx
    7b37:	48 8d 15 b2 3d 00 00 	lea    rdx,[rip+0x3db2]        # b8f0 <RedisModule_OnLoad@@Base+0x14d1>
    7b3e:	48 89 d7             	mov    rdi,rdx
    7b41:	ff d0                	call   rax
    7b43:	48 8d 05 2e 7d 00 00 	lea    rax,[rip+0x7d2e]        # f878 <RedisModule_GetApi@@Base>
    7b4a:	48 8b 00             	mov    rax,QWORD PTR [rax]
    7b4d:	48 8d 15 c4 79 00 00 	lea    rdx,[rip+0x79c4]        # f518 <RedisModule_CallReplyAttributeElement@@Base>
    7b54:	48 89 d6             	mov    rsi,rdx
    7b57:	48 8d 15 b2 3d 00 00 	lea    rdx,[rip+0x3db2]        # b910 <RedisModule_OnLoad@@Base+0x14f1>
    7b5e:	48 89 d7             	mov    rdi,rdx
    7b61:	ff d0                	call   rax
    7b63:	48 8d 05 0e 7d 00 00 	lea    rax,[rip+0x7d0e]        # f878 <RedisModule_GetApi@@Base>
    7b6a:	48 8b 00             	mov    rax,QWORD PTR [rax]
    7b6d:	48 8d 15 5c 7b 00 00 	lea    rdx,[rip+0x7b5c]        # f6d0 <RedisModule_CallReplyPromiseSetUnblockHandler@@Base>
    7b74:	48 89 d6             	mov    rsi,rdx
    7b77:	48 8d 15 ba 3d 00 00 	lea    rdx,[rip+0x3dba]        # b938 <RedisModule_OnLoad@@Base+0x1519>
    7b7e:	48 89 d7             	mov    rdi,rdx
    7b81:	ff d0                	call   rax
    7b83:	48 8d 05 ee 7c 00 00 	lea    rax,[rip+0x7cee]        # f878 <RedisModule_GetApi@@Base>
    7b8a:	48 8b 00             	mov    rax,QWORD PTR [rax]
    7b8d:	48 8d 15 1c 7b 00 00 	lea    rdx,[rip+0x7b1c]        # f6b0 <RedisModule_CallReplyPromiseAbort@@Base>
    7b94:	48 89 d6             	mov    rsi,rdx
    7b97:	48 8d 15 ca 3d 00 00 	lea    rdx,[rip+0x3dca]        # b968 <RedisModule_OnLoad@@Base+0x1549>
    7b9e:	48 89 d7             	mov    rdi,rdx
    7ba1:	ff d0                	call   rax
    7ba3:	48 8d 05 ce 7c 00 00 	lea    rax,[rip+0x7cce]        # f878 <RedisModule_GetApi@@Base>
    7baa:	48 8b 00             	mov    rax,QWORD PTR [rax]
    7bad:	48 8d 15 14 7a 00 00 	lea    rdx,[rip+0x7a14]        # f5c8 <RedisModule_CallReplyAttribute@@Base>
    7bb4:	48 89 d6             	mov    rsi,rdx
    7bb7:	48 8d 15 d2 3d 00 00 	lea    rdx,[rip+0x3dd2]        # b990 <RedisModule_OnLoad@@Base+0x1571>
    7bbe:	48 89 d7             	mov    rdi,rdx
    7bc1:	ff d0                	call   rax
    7bc3:	48 8d 05 ae 7c 00 00 	lea    rax,[rip+0x7cae]        # f878 <RedisModule_GetApi@@Base>
    7bca:	48 8b 00             	mov    rax,QWORD PTR [rax]
    7bcd:	48 8d 15 bc 76 00 00 	lea    rdx,[rip+0x76bc]        # f290 <RedisModule_CallReplyType@@Base>
    7bd4:	48 89 d6             	mov    rsi,rdx
    7bd7:	48 8d 15 d1 3d 00 00 	lea    rdx,[rip+0x3dd1]        # b9af <RedisModule_OnLoad@@Base+0x1590>
    7bde:	48 89 d7             	mov    rdi,rdx
    7be1:	ff d0                	call   rax
    7be3:	48 8d 05 8e 7c 00 00 	lea    rax,[rip+0x7c8e]        # f878 <RedisModule_GetApi@@Base>
    7bea:	48 8b 00             	mov    rax,QWORD PTR [rax]
    7bed:	48 8d 15 4c 7f 00 00 	lea    rdx,[rip+0x7f4c]        # fb40 <RedisModule_CallReplyLength@@Base>
    7bf4:	48 89 d6             	mov    rsi,rdx
    7bf7:	48 8d 15 cb 3d 00 00 	lea    rdx,[rip+0x3dcb]        # b9c9 <RedisModule_OnLoad@@Base+0x15aa>
    7bfe:	48 89 d7             	mov    rdi,rdx
    7c01:	ff d0                	call   rax
    7c03:	48 8d 05 6e 7c 00 00 	lea    rax,[rip+0x7c6e]        # f878 <RedisModule_GetApi@@Base>
    7c0a:	48 8b 00             	mov    rax,QWORD PTR [rax]
    7c0d:	48 8d 15 f4 79 00 00 	lea    rdx,[rip+0x79f4]        # f608 <RedisModule_CallReplyArrayElement@@Base>
    7c14:	48 89 d6             	mov    rsi,rdx
    7c17:	48 8d 15 ca 3d 00 00 	lea    rdx,[rip+0x3dca]        # b9e8 <RedisModule_OnLoad@@Base+0x15c9>
    7c1e:	48 89 d7             	mov    rdi,rdx
    7c21:	ff d0                	call   rax
    7c23:	48 8d 05 4e 7c 00 00 	lea    rax,[rip+0x7c4e]        # f878 <RedisModule_GetApi@@Base>
    7c2a:	48 8b 00             	mov    rax,QWORD PTR [rax]
    7c2d:	48 8d 15 94 76 00 00 	lea    rdx,[rip+0x7694]        # f2c8 <RedisModule_CallReplyStringPtr@@Base>
    7c34:	48 89 d6             	mov    rsi,rdx
    7c37:	48 8d 15 d2 3d 00 00 	lea    rdx,[rip+0x3dd2]        # ba10 <RedisModule_OnLoad@@Base+0x15f1>
    7c3e:	48 89 d7             	mov    rdi,rdx
    7c41:	ff d0                	call   rax
    7c43:	48 8d 05 2e 7c 00 00 	lea    rax,[rip+0x7c2e]        # f878 <RedisModule_GetApi@@Base>
    7c4a:	48 8b 00             	mov    rax,QWORD PTR [rax]
    7c4d:	48 8d 15 34 75 00 00 	lea    rdx,[rip+0x7534]        # f188 <RedisModule_CreateStringFromCallReply@@Base>
    7c54:	48 89 d6             	mov    rsi,rdx
    7c57:	48 8d 15 d2 3d 00 00 	lea    rdx,[rip+0x3dd2]        # ba30 <RedisModule_OnLoad@@Base+0x1611>
    7c5e:	48 89 d7             	mov    rdi,rdx
    7c61:	ff d0                	call   rax
    7c63:	48 8d 05 0e 7c 00 00 	lea    rax,[rip+0x7c0e]        # f878 <RedisModule_GetApi@@Base>
    7c6a:	48 8b 00             	mov    rax,QWORD PTR [rax]
    7c6d:	48 8d 15 fc 7e 00 00 	lea    rdx,[rip+0x7efc]        # fb70 <RedisModule_CreateString@@Base>
    7c74:	48 89 d6             	mov    rsi,rdx
    7c77:	48 8d 15 d8 3d 00 00 	lea    rdx,[rip+0x3dd8]        # ba56 <RedisModule_OnLoad@@Base+0x1637>
    7c7e:	48 89 d7             	mov    rdi,rdx
    7c81:	ff d0                	call   rax
    7c83:	48 8d 05 ee 7b 00 00 	lea    rax,[rip+0x7bee]        # f878 <RedisModule_GetApi@@Base>
    7c8a:	48 8b 00             	mov    rax,QWORD PTR [rax]
    7c8d:	48 8d 15 7c 7b 00 00 	lea    rdx,[rip+0x7b7c]        # f810 <RedisModule_CreateStringFromLongLong@@Base>
    7c94:	48 89 d6             	mov    rsi,rdx
    7c97:	48 8d 15 d2 3d 00 00 	lea    rdx,[rip+0x3dd2]        # ba70 <RedisModule_OnLoad@@Base+0x1651>
    7c9e:	48 89 d7             	mov    rdi,rdx
    7ca1:	ff d0                	call   rax
    7ca3:	48 8d 05 ce 7b 00 00 	lea    rax,[rip+0x7bce]        # f878 <RedisModule_GetApi@@Base>
    7caa:	48 8b 00             	mov    rax,QWORD PTR [rax]
    7cad:	48 8d 15 8c 75 00 00 	lea    rdx,[rip+0x758c]        # f240 <RedisModule_CreateStringFromULongLong@@Base>
    7cb4:	48 89 d6             	mov    rsi,rdx
    7cb7:	48 8d 15 da 3d 00 00 	lea    rdx,[rip+0x3dda]        # ba98 <RedisModule_OnLoad@@Base+0x1679>
    7cbe:	48 89 d7             	mov    rdi,rdx
    7cc1:	ff d0                	call   rax
    7cc3:	48 8d 05 ae 7b 00 00 	lea    rax,[rip+0x7bae]        # f878 <RedisModule_GetApi@@Base>
    7cca:	48 8b 00             	mov    rax,QWORD PTR [rax]
    7ccd:	48 8d 15 64 74 00 00 	lea    rdx,[rip+0x7464]        # f138 <RedisModule_CreateStringFromDouble@@Base>
    7cd4:	48 89 d6             	mov    rsi,rdx
    7cd7:	48 8d 15 e2 3d 00 00 	lea    rdx,[rip+0x3de2]        # bac0 <RedisModule_OnLoad@@Base+0x16a1>
    7cde:	48 89 d7             	mov    rdi,rdx
    7ce1:	ff d0                	call   rax
    7ce3:	48 8d 05 8e 7b 00 00 	lea    rax,[rip+0x7b8e]        # f878 <RedisModule_GetApi@@Base>
    7cea:	48 8b 00             	mov    rax,QWORD PTR [rax]
    7ced:	48 8d 15 ec 7a 00 00 	lea    rdx,[rip+0x7aec]        # f7e0 <RedisModule_CreateStringFromLongDouble@@Base>
    7cf4:	48 89 d6             	mov    rsi,rdx
    7cf7:	48 8d 15 ea 3d 00 00 	lea    rdx,[rip+0x3dea]        # bae8 <RedisModule_OnLoad@@Base+0x16c9>
    7cfe:	48 89 d7             	mov    rdi,rdx
    7d01:	ff d0                	call   rax
    7d03:	48 8d 05 6e 7b 00 00 	lea    rax,[rip+0x7b6e]        # f878 <RedisModule_GetApi@@Base>
    7d0a:	48 8b 00             	mov    rax,QWORD PTR [rax]
    7d0d:	48 8d 15 d4 76 00 00 	lea    rdx,[rip+0x76d4]        # f3e8 <RedisModule_CreateStringFromString@@Base>
    7d14:	48 89 d6             	mov    rsi,rdx
    7d17:	48 8d 15 f2 3d 00 00 	lea    rdx,[rip+0x3df2]        # bb10 <RedisModule_OnLoad@@Base+0x16f1>
    7d1e:	48 89 d7             	mov    rdi,rdx
    7d21:	ff d0                	call   rax
    7d23:	48 8d 05 4e 7b 00 00 	lea    rax,[rip+0x7b4e]        # f878 <RedisModule_GetApi@@Base>
    7d2a:	48 8b 00             	mov    rax,QWORD PTR [rax]
    7d2d:	48 8d 15 1c 75 00 00 	lea    rdx,[rip+0x751c]        # f250 <RedisModule_CreateStringFromStreamID@@Base>
    7d34:	48 89 d6             	mov    rsi,rdx
    7d37:	48 8d 15 fa 3d 00 00 	lea    rdx,[rip+0x3dfa]        # bb38 <RedisModule_OnLoad@@Base+0x1719>
    7d3e:	48 89 d7             	mov    rdi,rdx
    7d41:	ff d0                	call   rax
    7d43:	48 8d 05 2e 7b 00 00 	lea    rax,[rip+0x7b2e]        # f878 <RedisModule_GetApi@@Base>
    7d4a:	48 8b 00             	mov    rax,QWORD PTR [rax]
    7d4d:	48 8d 15 5c 7b 00 00 	lea    rdx,[rip+0x7b5c]        # f8b0 <RedisModule_CreateStringPrintf@@Base>
    7d54:	48 89 d6             	mov    rsi,rdx
    7d57:	48 8d 15 02 3e 00 00 	lea    rdx,[rip+0x3e02]        # bb60 <RedisModule_OnLoad@@Base+0x1741>
    7d5e:	48 89 d7             	mov    rdi,rdx
    7d61:	ff d0                	call   rax
    7d63:	48 8d 05 0e 7b 00 00 	lea    rax,[rip+0x7b0e]        # f878 <RedisModule_GetApi@@Base>
    7d6a:	48 8b 00             	mov    rax,QWORD PTR [rax]
    7d6d:	48 8d 15 e4 7d 00 00 	lea    rdx,[rip+0x7de4]        # fb58 <RedisModule_FreeString@@Base>
    7d74:	48 89 d6             	mov    rsi,rdx
    7d77:	48 8d 15 01 3e 00 00 	lea    rdx,[rip+0x3e01]        # bb7f <RedisModule_OnLoad@@Base+0x1760>
    7d7e:	48 89 d7             	mov    rdi,rdx
    7d81:	ff d0                	call   rax
    7d83:	48 8d 05 ee 7a 00 00 	lea    rax,[rip+0x7aee]        # f878 <RedisModule_GetApi@@Base>
    7d8a:	48 8b 00             	mov    rax,QWORD PTR [rax]
    7d8d:	48 8d 15 ec 7d 00 00 	lea    rdx,[rip+0x7dec]        # fb80 <RedisModule_StringPtrLen@@Base>
    7d94:	48 89 d6             	mov    rsi,rdx
    7d97:	48 8d 15 f8 3d 00 00 	lea    rdx,[rip+0x3df8]        # bb96 <RedisModule_OnLoad@@Base+0x1777>
    7d9e:	48 89 d7             	mov    rdi,rdx
    7da1:	ff d0                	call   rax
    7da3:	48 8d 05 ce 7a 00 00 	lea    rax,[rip+0x7ace]        # f878 <RedisModule_GetApi@@Base>
    7daa:	48 8b 00             	mov    rax,QWORD PTR [rax]
    7dad:	48 8d 15 8c 7b 00 00 	lea    rdx,[rip+0x7b8c]        # f940 <RedisModule_AutoMemory@@Base>
    7db4:	48 89 d6             	mov    rsi,rdx
    7db7:	48 8d 15 f1 3d 00 00 	lea    rdx,[rip+0x3df1]        # bbaf <RedisModule_OnLoad@@Base+0x1790>
    7dbe:	48 89 d7             	mov    rdi,rdx
    7dc1:	ff d0                	call   rax
    7dc3:	48 8d 05 ae 7a 00 00 	lea    rax,[rip+0x7aae]        # f878 <RedisModule_GetApi@@Base>
    7dca:	48 8b 00             	mov    rax,QWORD PTR [rax]
    7dcd:	48 8d 15 c4 73 00 00 	lea    rdx,[rip+0x73c4]        # f198 <RedisModule_Replicate@@Base>
    7dd4:	48 89 d6             	mov    rsi,rdx
    7dd7:	48 8d 15 e8 3d 00 00 	lea    rdx,[rip+0x3de8]        # bbc6 <RedisModule_OnLoad@@Base+0x17a7>
    7dde:	48 89 d7             	mov    rdi,rdx
    7de1:	ff d0                	call   rax
    7de3:	48 8d 05 8e 7a 00 00 	lea    rax,[rip+0x7a8e]        # f878 <RedisModule_GetApi@@Base>
    7dea:	48 8b 00             	mov    rax,QWORD PTR [rax]
    7ded:	48 8d 15 ac 74 00 00 	lea    rdx,[rip+0x74ac]        # f2a0 <RedisModule_ReplicateVerbatim@@Base>
    7df4:	48 89 d6             	mov    rsi,rdx
    7df7:	48 8d 15 de 3d 00 00 	lea    rdx,[rip+0x3dde]        # bbdc <RedisModule_OnLoad@@Base+0x17bd>
    7dfe:	48 89 d7             	mov    rdi,rdx
    7e01:	ff d0                	call   rax
    7e03:	48 8d 05 6e 7a 00 00 	lea    rax,[rip+0x7a6e]        # f878 <RedisModule_GetApi@@Base>
    7e0a:	48 8b 00             	mov    rax,QWORD PTR [rax]
    7e0d:	48 8d 15 3c 7b 00 00 	lea    rdx,[rip+0x7b3c]        # f950 <RedisModule_DeleteKey@@Base>
    7e14:	48 89 d6             	mov    rsi,rdx
    7e17:	48 8d 15 dc 3d 00 00 	lea    rdx,[rip+0x3ddc]        # bbfa <RedisModule_OnLoad@@Base+0x17db>
    7e1e:	48 89 d7             	mov    rdi,rdx
    7e21:	ff d0                	call   rax
    7e23:	48 8d 05 4e 7a 00 00 	lea    rax,[rip+0x7a4e]        # f878 <RedisModule_GetApi@@Base>
    7e2a:	48 8b 00             	mov    rax,QWORD PTR [rax]
    7e2d:	48 8d 15 cc 7a 00 00 	lea    rdx,[rip+0x7acc]        # f900 <RedisModule_UnlinkKey@@Base>
    7e34:	48 89 d6             	mov    rsi,rdx
    7e37:	48 8d 15 d2 3d 00 00 	lea    rdx,[rip+0x3dd2]        # bc10 <RedisModule_OnLoad@@Base+0x17f1>
    7e3e:	48 89 d7             	mov    rdi,rdx
    7e41:	ff d0                	call   rax
    7e43:	48 8d 05 2e 7a 00 00 	lea    rax,[rip+0x7a2e]        # f878 <RedisModule_GetApi@@Base>
    7e4a:	48 8b 00             	mov    rax,QWORD PTR [rax]
    7e4d:	48 8d 15 fc 77 00 00 	lea    rdx,[rip+0x77fc]        # f650 <RedisModule_StringSet@@Base>
    7e54:	48 89 d6             	mov    rsi,rdx
    7e57:	48 8d 15 c8 3d 00 00 	lea    rdx,[rip+0x3dc8]        # bc26 <RedisModule_OnLoad@@Base+0x1807>
    7e5e:	48 89 d7             	mov    rdi,rdx
    7e61:	ff d0                	call   rax
    7e63:	48 8d 05 0e 7a 00 00 	lea    rax,[rip+0x7a0e]        # f878 <RedisModule_GetApi@@Base>
    7e6a:	48 8b 00             	mov    rax,QWORD PTR [rax]
    7e6d:	48 8d 15 6c 76 00 00 	lea    rdx,[rip+0x766c]        # f4e0 <RedisModule_StringDMA@@Base>
    7e74:	48 89 d6             	mov    rsi,rdx
    7e77:	48 8d 15 be 3d 00 00 	lea    rdx,[rip+0x3dbe]        # bc3c <RedisModule_OnLoad@@Base+0x181d>
    7e7e:	48 89 d7             	mov    rdi,rdx
    7e81:	ff d0                	call   rax
    7e83:	48 8d 05 ee 79 00 00 	lea    rax,[rip+0x79ee]        # f878 <RedisModule_GetApi@@Base>
    7e8a:	48 8b 00             	mov    rax,QWORD PTR [rax]
    7e8d:	48 8d 15 9c 78 00 00 	lea    rdx,[rip+0x789c]        # f730 <RedisModule_StringTruncate@@Base>
    7e94:	48 89 d6             	mov    rsi,rdx
    7e97:	48 8d 15 b4 3d 00 00 	lea    rdx,[rip+0x3db4]        # bc52 <RedisModule_OnLoad@@Base+0x1833>
    7e9e:	48 89 d7             	mov    rdi,rdx
    7ea1:	ff d0                	call   rax
    7ea3:	48 8d 05 ce 79 00 00 	lea    rax,[rip+0x79ce]        # f878 <RedisModule_GetApi@@Base>
    7eaa:	48 8b 00             	mov    rax,QWORD PTR [rax]
    7ead:	48 8d 15 f4 77 00 00 	lea    rdx,[rip+0x77f4]        # f6a8 <RedisModule_GetExpire@@Base>
    7eb4:	48 89 d6             	mov    rsi,rdx
    7eb7:	48 8d 15 af 3d 00 00 	lea    rdx,[rip+0x3daf]        # bc6d <RedisModule_OnLoad@@Base+0x184e>
    7ebe:	48 89 d7             	mov    rdi,rdx
    7ec1:	ff d0                	call   rax
    7ec3:	48 8d 05 ae 79 00 00 	lea    rax,[rip+0x79ae]        # f878 <RedisModule_GetApi@@Base>
    7eca:	48 8b 00             	mov    rax,QWORD PTR [rax]
    7ecd:	48 8d 15 24 7b 00 00 	lea    rdx,[rip+0x7b24]        # f9f8 <RedisModule_SetExpire@@Base>
    7ed4:	48 89 d6             	mov    rsi,rdx
    7ed7:	48 8d 15 a5 3d 00 00 	lea    rdx,[rip+0x3da5]        # bc83 <RedisModule_OnLoad@@Base+0x1864>
    7ede:	48 89 d7             	mov    rdi,rdx
    7ee1:	ff d0                	call   rax
    7ee3:	48 8d 05 8e 79 00 00 	lea    rax,[rip+0x798e]        # f878 <RedisModule_GetApi@@Base>
    7eea:	48 8b 00             	mov    rax,QWORD PTR [rax]
    7eed:	48 8d 15 d4 71 00 00 	lea    rdx,[rip+0x71d4]        # f0c8 <RedisModule_GetAbsExpire@@Base>
    7ef4:	48 89 d6             	mov    rsi,rdx
    7ef7:	48 8d 15 9b 3d 00 00 	lea    rdx,[rip+0x3d9b]        # bc99 <RedisModule_OnLoad@@Base+0x187a>
    7efe:	48 89 d7             	mov    rdi,rdx
    7f01:	ff d0                	call   rax
    7f03:	48 8d 05 6e 79 00 00 	lea    rax,[rip+0x796e]        # f878 <RedisModule_GetApi@@Base>
    7f0a:	48 8b 00             	mov    rax,QWORD PTR [rax]
    7f0d:	48 8d 15 bc 79 00 00 	lea    rdx,[rip+0x79bc]        # f8d0 <RedisModule_SetAbsExpire@@Base>
    7f14:	48 89 d6             	mov    rsi,rdx
    7f17:	48 8d 15 94 3d 00 00 	lea    rdx,[rip+0x3d94]        # bcb2 <RedisModule_OnLoad@@Base+0x1893>
    7f1e:	48 89 d7             	mov    rdi,rdx
    7f21:	ff d0                	call   rax
    7f23:	48 8d 05 4e 79 00 00 	lea    rax,[rip+0x794e]        # f878 <RedisModule_GetApi@@Base>
    7f2a:	48 8b 00             	mov    rax,QWORD PTR [rax]
    7f2d:	48 8d 15 74 78 00 00 	lea    rdx,[rip+0x7874]        # f7a8 <RedisModule_ResetDataset@@Base>
    7f34:	48 89 d6             	mov    rsi,rdx
    7f37:	48 8d 15 8d 3d 00 00 	lea    rdx,[rip+0x3d8d]        # bccb <RedisModule_OnLoad@@Base+0x18ac>
    7f3e:	48 89 d7             	mov    rdi,rdx
    7f41:	ff d0                	call   rax
    7f43:	48 8d 05 2e 79 00 00 	lea    rax,[rip+0x792e]        # f878 <RedisModule_GetApi@@Base>
    7f4a:	48 8b 00             	mov    rax,QWORD PTR [rax]
    7f4d:	48 8d 15 e4 74 00 00 	lea    rdx,[rip+0x74e4]        # f438 <RedisModule_DbSize@@Base>
    7f54:	48 89 d6             	mov    rsi,rdx
    7f57:	48 8d 15 86 3d 00 00 	lea    rdx,[rip+0x3d86]        # bce4 <RedisModule_OnLoad@@Base+0x18c5>
    7f5e:	48 89 d7             	mov    rdi,rdx
    7f61:	ff d0                	call   rax
    7f63:	48 8d 05 0e 79 00 00 	lea    rax,[rip+0x790e]        # f878 <RedisModule_GetApi@@Base>
    7f6a:	48 8b 00             	mov    rax,QWORD PTR [rax]
    7f6d:	48 8d 15 1c 78 00 00 	lea    rdx,[rip+0x781c]        # f790 <RedisModule_RandomKey@@Base>
    7f74:	48 89 d6             	mov    rsi,rdx
    7f77:	48 8d 15 79 3d 00 00 	lea    rdx,[rip+0x3d79]        # bcf7 <RedisModule_OnLoad@@Base+0x18d8>
    7f7e:	48 89 d7             	mov    rdi,rdx
    7f81:	ff d0                	call   rax
    7f83:	48 8d 05 ee 78 00 00 	lea    rax,[rip+0x78ee]        # f878 <RedisModule_GetApi@@Base>
    7f8a:	48 8b 00             	mov    rax,QWORD PTR [rax]
    7f8d:	48 8d 15 4c 7a 00 00 	lea    rdx,[rip+0x7a4c]        # f9e0 <RedisModule_ZsetAdd@@Base>
    7f94:	48 89 d6             	mov    rsi,rdx
    7f97:	48 8d 15 6f 3d 00 00 	lea    rdx,[rip+0x3d6f]        # bd0d <RedisModule_OnLoad@@Base+0x18ee>
    7f9e:	48 89 d7             	mov    rdi,rdx
    7fa1:	ff d0                	call   rax
    7fa3:	48 8d 05 ce 78 00 00 	lea    rax,[rip+0x78ce]        # f878 <RedisModule_GetApi@@Base>
    7faa:	48 8b 00             	mov    rax,QWORD PTR [rax]
    7fad:	48 8d 15 bc 74 00 00 	lea    rdx,[rip+0x74bc]        # f470 <RedisModule_ZsetIncrby@@Base>
    7fb4:	48 89 d6             	mov    rsi,rdx
    7fb7:	48 8d 15 63 3d 00 00 	lea    rdx,[rip+0x3d63]        # bd21 <RedisModule_OnLoad@@Base+0x1902>
    7fbe:	48 89 d7             	mov    rdi,rdx
    7fc1:	ff d0                	call   rax
    7fc3:	48 8d 05 ae 78 00 00 	lea    rax,[rip+0x78ae]        # f878 <RedisModule_GetApi@@Base>
    7fca:	48 8b 00             	mov    rax,QWORD PTR [rax]
    7fcd:	48 8d 15 8c 7b 00 00 	lea    rdx,[rip+0x7b8c]        # fb60 <RedisModule_ZsetScore@@Base>
    7fd4:	48 89 d6             	mov    rsi,rdx
    7fd7:	48 8d 15 5a 3d 00 00 	lea    rdx,[rip+0x3d5a]        # bd38 <RedisModule_OnLoad@@Base+0x1919>
    7fde:	48 89 d7             	mov    rdi,rdx
    7fe1:	ff d0                	call   rax
    7fe3:	48 8d 05 8e 78 00 00 	lea    rax,[rip+0x788e]        # f878 <RedisModule_GetApi@@Base>
    7fea:	48 8b 00             	mov    rax,QWORD PTR [rax]
    7fed:	48 8d 15 bc 73 00 00 	lea    rdx,[rip+0x73bc]        # f3b0 <RedisModule_ZsetRem@@Base>
    7ff4:	48 89 d6             	mov    rsi,rdx
    7ff7:	48 8d 15 50 3d 00 00 	lea    rdx,[rip+0x3d50]        # bd4e <RedisModule_OnLoad@@Base+0x192f>
    7ffe:	48 89 d7             	mov    rdi,rdx
    8001:	ff d0                	call   rax
    8003:	48 8d 05 6e 78 00 00 	lea    rax,[rip+0x786e]        # f878 <RedisModule_GetApi@@Base>
    800a:	48 8b 00             	mov    rax,QWORD PTR [rax]
    800d:	48 8d 15 bc 74 00 00 	lea    rdx,[rip+0x74bc]        # f4d0 <RedisModule_ZsetRangeStop@@Base>
    8014:	48 89 d6             	mov    rsi,rdx
    8017:	48 8d 15 44 3d 00 00 	lea    rdx,[rip+0x3d44]        # bd62 <RedisModule_OnLoad@@Base+0x1943>
    801e:	48 89 d7             	mov    rdi,rdx
    8021:	ff d0                	call   rax
    8023:	48 8d 05 4e 78 00 00 	lea    rax,[rip+0x784e]        # f878 <RedisModule_GetApi@@Base>
    802a:	48 8b 00             	mov    rax,QWORD PTR [rax]
    802d:	48 8d 15 ec 77 00 00 	lea    rdx,[rip+0x77ec]        # f820 <RedisModule_ZsetFirstInScoreRange@@Base>
    8034:	48 89 d6             	mov    rsi,rdx
    8037:	48 8d 15 42 3d 00 00 	lea    rdx,[rip+0x3d42]        # bd80 <RedisModule_OnLoad@@Base+0x1961>
    803e:	48 89 d7             	mov    rdi,rdx
    8041:	ff d0                	call   rax
    8043:	48 8d 05 2e 78 00 00 	lea    rax,[rip+0x782e]        # f878 <RedisModule_GetApi@@Base>
    804a:	48 8b 00             	mov    rax,QWORD PTR [rax]
    804d:	48 8d 15 4c 7b 00 00 	lea    rdx,[rip+0x7b4c]        # fba0 <RedisModule_ZsetLastInScoreRange@@Base>
    8054:	48 89 d6             	mov    rsi,rdx
    8057:	48 8d 15 4a 3d 00 00 	lea    rdx,[rip+0x3d4a]        # bda8 <RedisModule_OnLoad@@Base+0x1989>
    805e:	48 89 d7             	mov    rdi,rdx
    8061:	ff d0                	call   rax
    8063:	48 8d 05 0e 78 00 00 	lea    rax,[rip+0x780e]        # f878 <RedisModule_GetApi@@Base>
    806a:	48 8b 00             	mov    rax,QWORD PTR [rax]
    806d:	48 8d 15 64 76 00 00 	lea    rdx,[rip+0x7664]        # f6d8 <RedisModule_ZsetFirstInLexRange@@Base>
    8074:	48 89 d6             	mov    rsi,rdx
    8077:	48 8d 15 52 3d 00 00 	lea    rdx,[rip+0x3d52]        # bdd0 <RedisModule_OnLoad@@Base+0x19b1>
    807e:	48 89 d7             	mov    rdi,rdx
    8081:	ff d0                	call   rax
    8083:	48 8d 05 ee 77 00 00 	lea    rax,[rip+0x77ee]        # f878 <RedisModule_GetApi@@Base>
    808a:	48 8b 00             	mov    rax,QWORD PTR [rax]
    808d:	48 8d 15 c4 73 00 00 	lea    rdx,[rip+0x73c4]        # f458 <RedisModule_ZsetLastInLexRange@@Base>
    8094:	48 89 d6             	mov    rsi,rdx
    8097:	48 8d 15 52 3d 00 00 	lea    rdx,[rip+0x3d52]        # bdf0 <RedisModule_OnLoad@@Base+0x19d1>
    809e:	48 89 d7             	mov    rdi,rdx
    80a1:	ff d0                	call   rax
    80a3:	48 8d 05 ce 77 00 00 	lea    rax,[rip+0x77ce]        # f878 <RedisModule_GetApi@@Base>
    80aa:	48 8b 00             	mov    rax,QWORD PTR [rax]
    80ad:	48 8d 15 dc 79 00 00 	lea    rdx,[rip+0x79dc]        # fa90 <RedisModule_ZsetRangeCurrentElement@@Base>
    80b4:	48 89 d6             	mov    rsi,rdx
    80b7:	48 8d 15 52 3d 00 00 	lea    rdx,[rip+0x3d52]        # be10 <RedisModule_OnLoad@@Base+0x19f1>
    80be:	48 89 d7             	mov    rdi,rdx
    80c1:	ff d0                	call   rax
    80c3:	48 8d 05 ae 77 00 00 	lea    rax,[rip+0x77ae]        # f878 <RedisModule_GetApi@@Base>
    80ca:	48 8b 00             	mov    rax,QWORD PTR [rax]
    80cd:	48 8d 15 94 7a 00 00 	lea    rdx,[rip+0x7a94]        # fb68 <RedisModule_ZsetRangeNext@@Base>
    80d4:	48 89 d6             	mov    rsi,rdx
    80d7:	48 8d 15 56 3d 00 00 	lea    rdx,[rip+0x3d56]        # be34 <RedisModule_OnLoad@@Base+0x1a15>
    80de:	48 89 d7             	mov    rdi,rdx
    80e1:	ff d0                	call   rax
    80e3:	48 8d 05 8e 77 00 00 	lea    rax,[rip+0x778e]        # f878 <RedisModule_GetApi@@Base>
    80ea:	48 8b 00             	mov    rax,QWORD PTR [rax]
    80ed:	48 8d 15 0c 79 00 00 	lea    rdx,[rip+0x790c]        # fa00 <RedisModule_ZsetRangePrev@@Base>
    80f4:	48 89 d6             	mov    rsi,rdx
    80f7:	48 8d 15 50 3d 00 00 	lea    rdx,[rip+0x3d50]        # be4e <RedisModule_OnLoad@@Base+0x1a2f>
    80fe:	48 89 d7             	mov    rdi,rdx
    8101:	ff d0                	call   rax
    8103:	48 8d 05 6e 77 00 00 	lea    rax,[rip+0x776e]        # f878 <RedisModule_GetApi@@Base>
    810a:	48 8b 00             	mov    rax,QWORD PTR [rax]
    810d:	48 8d 15 8c 78 00 00 	lea    rdx,[rip+0x788c]        # f9a0 <RedisModule_ZsetRangeEndReached@@Base>
    8114:	48 89 d6             	mov    rsi,rdx
    8117:	48 8d 15 4a 3d 00 00 	lea    rdx,[rip+0x3d4a]        # be68 <RedisModule_OnLoad@@Base+0x1a49>
    811e:	48 89 d7             	mov    rdi,rdx
    8121:	ff d0                	call   rax
    8123:	48 8d 05 4e 77 00 00 	lea    rax,[rip+0x774e]        # f878 <RedisModule_GetApi@@Base>
    812a:	48 8b 00             	mov    rax,QWORD PTR [rax]
    812d:	48 8d 15 84 71 00 00 	lea    rdx,[rip+0x7184]        # f2b8 <RedisModule_HashSet@@Base>
    8134:	48 89 d6             	mov    rsi,rdx
    8137:	48 8d 15 4a 3d 00 00 	lea    rdx,[rip+0x3d4a]        # be88 <RedisModule_OnLoad@@Base+0x1a69>
    813e:	48 89 d7             	mov    rdi,rdx
    8141:	ff d0                	call   rax
    8143:	48 8d 05 2e 77 00 00 	lea    rax,[rip+0x772e]        # f878 <RedisModule_GetApi@@Base>
    814a:	48 8b 00             	mov    rax,QWORD PTR [rax]
    814d:	48 8d 15 ac 72 00 00 	lea    rdx,[rip+0x72ac]        # f400 <RedisModule_HashGet@@Base>
    8154:	48 89 d6             	mov    rsi,rdx
    8157:	48 8d 15 3e 3d 00 00 	lea    rdx,[rip+0x3d3e]        # be9c <RedisModule_OnLoad@@Base+0x1a7d>
    815e:	48 89 d7             	mov    rdi,rdx
    8161:	ff d0                	call   rax
    8163:	48 8d 05 0e 77 00 00 	lea    rax,[rip+0x770e]        # f878 <RedisModule_GetApi@@Base>
    816a:	48 8b 00             	mov    rax,QWORD PTR [rax]
    816d:	48 8d 15 a4 70 00 00 	lea    rdx,[rip+0x70a4]        # f218 <RedisModule_StreamAdd@@Base>
    8174:	48 89 d6             	mov    rsi,rdx
    8177:	48 8d 15 32 3d 00 00 	lea    rdx,[rip+0x3d32]        # beb0 <RedisModule_OnLoad@@Base+0x1a91>
    817e:	48 89 d7             	mov    rdi,rdx
    8181:	ff d0                	call   rax
    8183:	48 8d 05 ee 76 00 00 	lea    rax,[rip+0x76ee]        # f878 <RedisModule_GetApi@@Base>
    818a:	48 8b 00             	mov    rax,QWORD PTR [rax]
    818d:	48 8d 15 cc 76 00 00 	lea    rdx,[rip+0x76cc]        # f860 <RedisModule_StreamDelete@@Base>
    8194:	48 89 d6             	mov    rsi,rdx
    8197:	48 8d 15 28 3d 00 00 	lea    rdx,[rip+0x3d28]        # bec6 <RedisModule_OnLoad@@Base+0x1aa7>
    819e:	48 89 d7             	mov    rdi,rdx
    81a1:	ff d0                	call   rax
    81a3:	48 8d 05 ce 76 00 00 	lea    rax,[rip+0x76ce]        # f878 <RedisModule_GetApi@@Base>
    81aa:	48 8b 00             	mov    rax,QWORD PTR [rax]
    81ad:	48 8d 15 5c 73 00 00 	lea    rdx,[rip+0x735c]        # f510 <RedisModule_StreamIteratorStart@@Base>
    81b4:	48 89 d6             	mov    rsi,rdx
    81b7:	48 8d 15 22 3d 00 00 	lea    rdx,[rip+0x3d22]        # bee0 <RedisModule_OnLoad@@Base+0x1ac1>
    81be:	48 89 d7             	mov    rdi,rdx
    81c1:	ff d0                	call   rax
    81c3:	48 8d 05 ae 76 00 00 	lea    rax,[rip+0x76ae]        # f878 <RedisModule_GetApi@@Base>
    81ca:	48 8b 00             	mov    rax,QWORD PTR [rax]
    81cd:	48 8d 15 94 71 00 00 	lea    rdx,[rip+0x7194]        # f368 <RedisModule_StreamIteratorStop@@Base>
    81d4:	48 89 d6             	mov    rsi,rdx
    81d7:	48 8d 15 22 3d 00 00 	lea    rdx,[rip+0x3d22]        # bf00 <RedisModule_OnLoad@@Base+0x1ae1>
    81de:	48 89 d7             	mov    rdi,rdx
    81e1:	ff d0                	call   rax
    81e3:	48 8d 05 8e 76 00 00 	lea    rax,[rip+0x768e]        # f878 <RedisModule_GetApi@@Base>
    81ea:	48 8b 00             	mov    rax,QWORD PTR [rax]
    81ed:	48 8d 15 a4 76 00 00 	lea    rdx,[rip+0x76a4]        # f898 <RedisModule_StreamIteratorNextID@@Base>
    81f4:	48 89 d6             	mov    rsi,rdx
    81f7:	48 8d 15 22 3d 00 00 	lea    rdx,[rip+0x3d22]        # bf20 <RedisModule_OnLoad@@Base+0x1b01>
    81fe:	48 89 d7             	mov    rdi,rdx
    8201:	ff d0                	call   rax
    8203:	48 8d 05 6e 76 00 00 	lea    rax,[rip+0x766e]        # f878 <RedisModule_GetApi@@Base>
    820a:	48 8b 00             	mov    rax,QWORD PTR [rax]
    820d:	48 8d 15 64 75 00 00 	lea    rdx,[rip+0x7564]        # f778 <RedisModule_StreamIteratorNextField@@Base>
    8214:	48 89 d6             	mov    rsi,rdx
    8217:	48 8d 15 2a 3d 00 00 	lea    rdx,[rip+0x3d2a]        # bf48 <RedisModule_OnLoad@@Base+0x1b29>
    821e:	48 89 d7             	mov    rdi,rdx
    8221:	ff d0                	call   rax
    8223:	48 8d 05 4e 76 00 00 	lea    rax,[rip+0x764e]        # f878 <RedisModule_GetApi@@Base>
    822a:	48 8b 00             	mov    rax,QWORD PTR [rax]
    822d:	48 8d 15 9c 70 00 00 	lea    rdx,[rip+0x709c]        # f2d0 <RedisModule_StreamIteratorDelete@@Base>
    8234:	48 89 d6             	mov    rsi,rdx
    8237:	48 8d 15 32 3d 00 00 	lea    rdx,[rip+0x3d32]        # bf70 <RedisModule_OnLoad@@Base+0x1b51>
    823e:	48 89 d7             	mov    rdi,rdx
    8241:	ff d0                	call   rax
    8243:	48 8d 05 2e 76 00 00 	lea    rax,[rip+0x762e]        # f878 <RedisModule_GetApi@@Base>
    824a:	48 8b 00             	mov    rax,QWORD PTR [rax]
    824d:	48 8d 15 74 77 00 00 	lea    rdx,[rip+0x7774]        # f9c8 <RedisModule_StreamTrimByLength@@Base>
    8254:	48 89 d6             	mov    rsi,rdx
    8257:	48 8d 15 3a 3d 00 00 	lea    rdx,[rip+0x3d3a]        # bf98 <RedisModule_OnLoad@@Base+0x1b79>
    825e:	48 89 d7             	mov    rdi,rdx
    8261:	ff d0                	call   rax
    8263:	48 8d 05 0e 76 00 00 	lea    rax,[rip+0x760e]        # f878 <RedisModule_GetApi@@Base>
    826a:	48 8b 00             	mov    rax,QWORD PTR [rax]
    826d:	48 8d 15 2c 75 00 00 	lea    rdx,[rip+0x752c]        # f7a0 <RedisModule_StreamTrimByID@@Base>
    8274:	48 89 d6             	mov    rsi,rdx
    8277:	48 8d 15 39 3d 00 00 	lea    rdx,[rip+0x3d39]        # bfb7 <RedisModule_OnLoad@@Base+0x1b98>
    827e:	48 89 d7             	mov    rdi,rdx
    8281:	ff d0                	call   rax
    8283:	48 8d 05 ee 75 00 00 	lea    rax,[rip+0x75ee]        # f878 <RedisModule_GetApi@@Base>
    828a:	48 8b 00             	mov    rax,QWORD PTR [rax]
    828d:	48 8d 15 1c 6f 00 00 	lea    rdx,[rip+0x6f1c]        # f1b0 <RedisModule_IsKeysPositionRequest@@Base>
    8294:	48 89 d6             	mov    rsi,rdx
    8297:	48 8d 15 3a 3d 00 00 	lea    rdx,[rip+0x3d3a]        # bfd8 <RedisModule_OnLoad@@Base+0x1bb9>
    829e:	48 89 d7             	mov    rdi,rdx
    82a1:	ff d0                	call   rax
    82a3:	48 8d 05 ce 75 00 00 	lea    rax,[rip+0x75ce]        # f878 <RedisModule_GetApi@@Base>
    82aa:	48 8b 00             	mov    rax,QWORD PTR [rax]
    82ad:	48 8d 15 84 76 00 00 	lea    rdx,[rip+0x7684]        # f938 <RedisModule_KeyAtPos@@Base>
    82b4:	48 89 d6             	mov    rsi,rdx
    82b7:	48 8d 15 3c 3d 00 00 	lea    rdx,[rip+0x3d3c]        # bffa <RedisModule_OnLoad@@Base+0x1bdb>
    82be:	48 89 d7             	mov    rdi,rdx
    82c1:	ff d0                	call   rax
    82c3:	48 8d 05 ae 75 00 00 	lea    rax,[rip+0x75ae]        # f878 <RedisModule_GetApi@@Base>
    82ca:	48 8b 00             	mov    rax,QWORD PTR [rax]
    82cd:	48 8d 15 34 71 00 00 	lea    rdx,[rip+0x7134]        # f408 <RedisModule_KeyAtPosWithFlags@@Base>
    82d4:	48 89 d6             	mov    rsi,rdx
    82d7:	48 8d 15 31 3d 00 00 	lea    rdx,[rip+0x3d31]        # c00f <RedisModule_OnLoad@@Base+0x1bf0>
    82de:	48 89 d7             	mov    rdi,rdx
    82e1:	ff d0                	call   rax
    82e3:	48 8d 05 8e 75 00 00 	lea    rax,[rip+0x758e]        # f878 <RedisModule_GetApi@@Base>
    82ea:	48 8b 00             	mov    rax,QWORD PTR [rax]
    82ed:	48 8d 15 14 75 00 00 	lea    rdx,[rip+0x7514]        # f808 <RedisModule_IsChannelsPositionRequest@@Base>
    82f4:	48 89 d6             	mov    rsi,rdx
    82f7:	48 8d 15 32 3d 00 00 	lea    rdx,[rip+0x3d32]        # c030 <RedisModule_OnLoad@@Base+0x1c11>
    82fe:	48 89 d7             	mov    rdi,rdx
    8301:	ff d0                	call   rax
    8303:	48 8d 05 6e 75 00 00 	lea    rax,[rip+0x756e]        # f878 <RedisModule_GetApi@@Base>
    830a:	48 8b 00             	mov    rax,QWORD PTR [rax]
    830d:	48 8d 15 44 70 00 00 	lea    rdx,[rip+0x7044]        # f358 <RedisModule_ChannelAtPosWithFlags@@Base>
    8314:	48 89 d6             	mov    rsi,rdx
    8317:	48 8d 15 3a 3d 00 00 	lea    rdx,[rip+0x3d3a]        # c058 <RedisModule_OnLoad@@Base+0x1c39>
    831e:	48 89 d7             	mov    rdi,rdx
    8321:	ff d0                	call   rax
    8323:	48 8d 05 4e 75 00 00 	lea    rax,[rip+0x754e]        # f878 <RedisModule_GetApi@@Base>
    832a:	48 8b 00             	mov    rax,QWORD PTR [rax]
    832d:	48 8d 15 bc 73 00 00 	lea    rdx,[rip+0x73bc]        # f6f0 <RedisModule_GetClientId@@Base>
    8334:	48 89 d6             	mov    rsi,rdx
    8337:	48 8d 15 3c 3d 00 00 	lea    rdx,[rip+0x3d3c]        # c07a <RedisModule_OnLoad@@Base+0x1c5b>
    833e:	48 89 d7             	mov    rdi,rdx
    8341:	ff d0                	call   rax
    8343:	48 8d 05 2e 75 00 00 	lea    rax,[rip+0x752e]        # f878 <RedisModule_GetApi@@Base>
    834a:	48 8b 00             	mov    rax,QWORD PTR [rax]
    834d:	48 8d 15 0c 77 00 00 	lea    rdx,[rip+0x770c]        # fa60 <RedisModule_GetClientUserNameById@@Base>
    8354:	48 89 d6             	mov    rsi,rdx
    8357:	48 8d 15 3a 3d 00 00 	lea    rdx,[rip+0x3d3a]        # c098 <RedisModule_OnLoad@@Base+0x1c79>
    835e:	48 89 d7             	mov    rdi,rdx
    8361:	ff d0                	call   rax
    8363:	48 8d 05 0e 75 00 00 	lea    rax,[rip+0x750e]        # f878 <RedisModule_GetApi@@Base>
    836a:	48 8b 00             	mov    rax,QWORD PTR [rax]
    836d:	48 8d 15 ec 71 00 00 	lea    rdx,[rip+0x71ec]        # f560 <RedisModule_GetContextFlags@@Base>
    8374:	48 89 d6             	mov    rsi,rdx
    8377:	48 8d 15 3c 3d 00 00 	lea    rdx,[rip+0x3d3c]        # c0ba <RedisModule_OnLoad@@Base+0x1c9b>
    837e:	48 89 d7             	mov    rdi,rdx
    8381:	ff d0                	call   rax
    8383:	48 8d 05 ee 74 00 00 	lea    rax,[rip+0x74ee]        # f878 <RedisModule_GetApi@@Base>
    838a:	48 8b 00             	mov    rax,QWORD PTR [rax]
    838d:	48 8d 15 44 74 00 00 	lea    rdx,[rip+0x7444]        # f7d8 <RedisModule_AvoidReplicaTraffic@@Base>
    8394:	48 89 d6             	mov    rsi,rdx
    8397:	48 8d 15 3a 3d 00 00 	lea    rdx,[rip+0x3d3a]        # c0d8 <RedisModule_OnLoad@@Base+0x1cb9>
    839e:	48 89 d7             	mov    rdi,rdx
    83a1:	ff d0                	call   rax
    83a3:	48 8d 05 ce 74 00 00 	lea    rax,[rip+0x74ce]        # f878 <RedisModule_GetApi@@Base>
    83aa:	48 8b 00             	mov    rax,QWORD PTR [rax]
    83ad:	48 8d 15 2c 70 00 00 	lea    rdx,[rip+0x702c]        # f3e0 <RedisModule_PoolAlloc@@Base>
    83b4:	48 89 d6             	mov    rsi,rdx
    83b7:	48 8d 15 3a 3d 00 00 	lea    rdx,[rip+0x3d3a]        # c0f8 <RedisModule_OnLoad@@Base+0x1cd9>
    83be:	48 89 d7             	mov    rdi,rdx
    83c1:	ff d0                	call   rax
    83c3:	48 8d 05 ae 74 00 00 	lea    rax,[rip+0x74ae]        # f878 <RedisModule_GetApi@@Base>
    83ca:	48 8b 00             	mov    rax,QWORD PTR [rax]
    83cd:	48 8d 15 04 70 00 00 	lea    rdx,[rip+0x7004]        # f3d8 <RedisModule_CreateDataType@@Base>
    83d4:	48 89 d6             	mov    rsi,rdx
    83d7:	48 8d 15 30 3d 00 00 	lea    rdx,[rip+0x3d30]        # c10e <RedisModule_OnLoad@@Base+0x1cef>
    83de:	48 89 d7             	mov    rdi,rdx
    83e1:	ff d0                	call   rax
    83e3:	48 8d 05 8e 74 00 00 	lea    rax,[rip+0x748e]        # f878 <RedisModule_GetApi@@Base>
    83ea:	48 8b 00             	mov    rax,QWORD PTR [rax]
    83ed:	48 8d 15 24 70 00 00 	lea    rdx,[rip+0x7024]        # f418 <RedisModule_ModuleTypeSetValue@@Base>
    83f4:	48 89 d6             	mov    rsi,rdx
    83f7:	48 8d 15 32 3d 00 00 	lea    rdx,[rip+0x3d32]        # c130 <RedisModule_OnLoad@@Base+0x1d11>
    83fe:	48 89 d7             	mov    rdi,rdx
    8401:	ff d0                	call   rax
    8403:	48 8d 05 6e 74 00 00 	lea    rax,[rip+0x746e]        # f878 <RedisModule_GetApi@@Base>
    840a:	48 8b 00             	mov    rax,QWORD PTR [rax]
    840d:	48 8d 15 dc 71 00 00 	lea    rdx,[rip+0x71dc]        # f5f0 <RedisModule_ModuleTypeReplaceValue@@Base>
    8414:	48 89 d6             	mov    rsi,rdx
    8417:	48 8d 15 32 3d 00 00 	lea    rdx,[rip+0x3d32]        # c150 <RedisModule_OnLoad@@Base+0x1d31>
    841e:	48 89 d7             	mov    rdi,rdx
    8421:	ff d0                	call   rax
    8423:	48 8d 05 4e 74 00 00 	lea    rax,[rip+0x744e]        # f878 <RedisModule_GetApi@@Base>
    842a:	48 8b 00             	mov    rax,QWORD PTR [rax]
    842d:	48 8d 15 1c 76 00 00 	lea    rdx,[rip+0x761c]        # fa50 <RedisModule_ModuleTypeGetType@@Base>
    8434:	48 89 d6             	mov    rsi,rdx
    8437:	48 8d 15 35 3d 00 00 	lea    rdx,[rip+0x3d35]        # c173 <RedisModule_OnLoad@@Base+0x1d54>
    843e:	48 89 d7             	mov    rdi,rdx
    8441:	ff d0                	call   rax
    8443:	48 8d 05 2e 74 00 00 	lea    rax,[rip+0x742e]        # f878 <RedisModule_GetApi@@Base>
    844a:	48 8b 00             	mov    rax,QWORD PTR [rax]
    844d:	48 8d 15 bc 74 00 00 	lea    rdx,[rip+0x74bc]        # f910 <RedisModule_ModuleTypeGetValue@@Base>
    8454:	48 89 d6             	mov    rsi,rdx
    8457:	48 8d 15 3a 3d 00 00 	lea    rdx,[rip+0x3d3a]        # c198 <RedisModule_OnLoad@@Base+0x1d79>
    845e:	48 89 d7             	mov    rdi,rdx
    8461:	ff d0                	call   rax
    8463:	48 8d 05 0e 74 00 00 	lea    rax,[rip+0x740e]        # f878 <RedisModule_GetApi@@Base>
    846a:	48 8b 00             	mov    rax,QWORD PTR [rax]
    846d:	48 8d 15 b4 70 00 00 	lea    rdx,[rip+0x70b4]        # f528 <RedisModule_IsIOError@@Base>
    8474:	48 89 d6             	mov    rsi,rdx
    8477:	48 8d 15 39 3d 00 00 	lea    rdx,[rip+0x3d39]        # c1b7 <RedisModule_OnLoad@@Base+0x1d98>
    847e:	48 89 d7             	mov    rdi,rdx
    8481:	ff d0                	call   rax
    8483:	48 8d 05 ee 73 00 00 	lea    rax,[rip+0x73ee]        # f878 <RedisModule_GetApi@@Base>
    848a:	48 8b 00             	mov    rax,QWORD PTR [rax]
    848d:	48 8d 15 bc 72 00 00 	lea    rdx,[rip+0x72bc]        # f750 <RedisModule_SetModuleOptions@@Base>
    8494:	48 89 d6             	mov    rsi,rdx
    8497:	48 8d 15 2f 3d 00 00 	lea    rdx,[rip+0x3d2f]        # c1cd <RedisModule_OnLoad@@Base+0x1dae>
    849e:	48 89 d7             	mov    rdi,rdx
    84a1:	ff d0                	call   rax
    84a3:	48 8d 05 ce 73 00 00 	lea    rax,[rip+0x73ce]        # f878 <RedisModule_GetApi@@Base>
    84aa:	48 8b 00             	mov    rax,QWORD PTR [rax]
    84ad:	48 8d 15 6c 72 00 00 	lea    rdx,[rip+0x726c]        # f720 <RedisModule_SignalModifiedKey@@Base>
    84b4:	48 89 d6             	mov    rsi,rdx
    84b7:	48 8d 15 2c 3d 00 00 	lea    rdx,[rip+0x3d2c]        # c1ea <RedisModule_OnLoad@@Base+0x1dcb>
    84be:	48 89 d7             	mov    rdi,rdx
    84c1:	ff d0                	call   rax
    84c3:	48 8d 05 ae 73 00 00 	lea    rax,[rip+0x73ae]        # f878 <RedisModule_GetApi@@Base>
    84ca:	48 8b 00             	mov    rax,QWORD PTR [rax]
    84cd:	48 8d 15 d4 6c 00 00 	lea    rdx,[rip+0x6cd4]        # f1a8 <RedisModule_SaveUnsigned@@Base>
    84d4:	48 89 d6             	mov    rsi,rdx
    84d7:	48 8d 15 2a 3d 00 00 	lea    rdx,[rip+0x3d2a]        # c208 <RedisModule_OnLoad@@Base+0x1de9>
    84de:	48 89 d7             	mov    rdi,rdx
    84e1:	ff d0                	call   rax
    84e3:	48 8d 05 8e 73 00 00 	lea    rax,[rip+0x738e]        # f878 <RedisModule_GetApi@@Base>
    84ea:	48 8b 00             	mov    rax,QWORD PTR [rax]
    84ed:	48 8d 15 04 76 00 00 	lea    rdx,[rip+0x7604]        # faf8 <RedisModule_LoadUnsigned@@Base>
    84f4:	48 89 d6             	mov    rsi,rdx
    84f7:	48 8d 15 23 3d 00 00 	lea    rdx,[rip+0x3d23]        # c221 <RedisModule_OnLoad@@Base+0x1e02>
    84fe:	48 89 d7             	mov    rdi,rdx
    8501:	ff d0                	call   rax
    8503:	48 8d 05 6e 73 00 00 	lea    rax,[rip+0x736e]        # f878 <RedisModule_GetApi@@Base>
    850a:	48 8b 00             	mov    rax,QWORD PTR [rax]
    850d:	48 8d 15 0c 76 00 00 	lea    rdx,[rip+0x760c]        # fb20 <RedisModule_SaveSigned@@Base>
    8514:	48 89 d6             	mov    rsi,rdx
    8517:	48 8d 15 1c 3d 00 00 	lea    rdx,[rip+0x3d1c]        # c23a <RedisModule_OnLoad@@Base+0x1e1b>
    851e:	48 89 d7             	mov    rdi,rdx
    8521:	ff d0                	call   rax
    8523:	48 8d 05 4e 73 00 00 	lea    rax,[rip+0x734e]        # f878 <RedisModule_GetApi@@Base>
    852a:	48 8b 00             	mov    rax,QWORD PTR [rax]
    852d:	48 8d 15 5c 6f 00 00 	lea    rdx,[rip+0x6f5c]        # f490 <RedisModule_LoadSigned@@Base>
    8534:	48 89 d6             	mov    rsi,rdx
    8537:	48 8d 15 13 3d 00 00 	lea    rdx,[rip+0x3d13]        # c251 <RedisModule_OnLoad@@Base+0x1e32>
    853e:	48 89 d7             	mov    rdi,rdx
    8541:	ff d0                	call   rax
    8543:	48 8d 05 2e 73 00 00 	lea    rax,[rip+0x732e]        # f878 <RedisModule_GetApi@@Base>
    854a:	48 8b 00             	mov    rax,QWORD PTR [rax]
    854d:	48 8d 15 84 74 00 00 	lea    rdx,[rip+0x7484]        # f9d8 <RedisModule_SaveString@@Base>
    8554:	48 89 d6             	mov    rsi,rdx
    8557:	48 8d 15 0a 3d 00 00 	lea    rdx,[rip+0x3d0a]        # c268 <RedisModule_OnLoad@@Base+0x1e49>
    855e:	48 89 d7             	mov    rdi,rdx
    8561:	ff d0                	call   rax
    8563:	48 8d 05 0e 73 00 00 	lea    rax,[rip+0x730e]        # f878 <RedisModule_GetApi@@Base>
    856a:	48 8b 00             	mov    rax,QWORD PTR [rax]
    856d:	48 8d 15 f4 6b 00 00 	lea    rdx,[rip+0x6bf4]        # f168 <RedisModule_SaveStringBuffer@@Base>
    8574:	48 89 d6             	mov    rsi,rdx
    8577:	48 8d 15 01 3d 00 00 	lea    rdx,[rip+0x3d01]        # c27f <RedisModule_OnLoad@@Base+0x1e60>
    857e:	48 89 d7             	mov    rdi,rdx
    8581:	ff d0                	call   rax
    8583:	48 8d 05 ee 72 00 00 	lea    rax,[rip+0x72ee]        # f878 <RedisModule_GetApi@@Base>
    858a:	48 8b 00             	mov    rax,QWORD PTR [rax]
    858d:	48 8d 15 fc 6d 00 00 	lea    rdx,[rip+0x6dfc]        # f390 <RedisModule_LoadString@@Base>
    8594:	48 89 d6             	mov    rsi,rdx
    8597:	48 8d 15 fe 3c 00 00 	lea    rdx,[rip+0x3cfe]        # c29c <RedisModule_OnLoad@@Base+0x1e7d>
    859e:	48 89 d7             	mov    rdi,rdx
    85a1:	ff d0                	call   rax
    85a3:	48 8d 05 ce 72 00 00 	lea    rax,[rip+0x72ce]        # f878 <RedisModule_GetApi@@Base>
    85aa:	48 8b 00             	mov    rax,QWORD PTR [rax]
    85ad:	48 8d 15 e4 6e 00 00 	lea    rdx,[rip+0x6ee4]        # f498 <RedisModule_LoadStringBuffer@@Base>
    85b4:	48 89 d6             	mov    rsi,rdx
    85b7:	48 8d 15 f5 3c 00 00 	lea    rdx,[rip+0x3cf5]        # c2b3 <RedisModule_OnLoad@@Base+0x1e94>
    85be:	48 89 d7             	mov    rdi,rdx
    85c1:	ff d0                	call   rax
    85c3:	48 8d 05 ae 72 00 00 	lea    rax,[rip+0x72ae]        # f878 <RedisModule_GetApi@@Base>
    85ca:	48 8b 00             	mov    rax,QWORD PTR [rax]
    85cd:	48 8d 15 d4 6a 00 00 	lea    rdx,[rip+0x6ad4]        # f0a8 <RedisModule_SaveDouble@@Base>
    85d4:	48 89 d6             	mov    rsi,rdx
    85d7:	48 8d 15 f2 3c 00 00 	lea    rdx,[rip+0x3cf2]        # c2d0 <RedisModule_OnLoad@@Base+0x1eb1>
    85de:	48 89 d7             	mov    rdi,rdx
    85e1:	ff d0                	call   rax
    85e3:	48 8d 05 8e 72 00 00 	lea    rax,[rip+0x728e]        # f878 <RedisModule_GetApi@@Base>
    85ea:	48 8b 00             	mov    rax,QWORD PTR [rax]
    85ed:	48 8d 15 b4 6e 00 00 	lea    rdx,[rip+0x6eb4]        # f4a8 <RedisModule_LoadDouble@@Base>
    85f4:	48 89 d6             	mov    rsi,rdx
    85f7:	48 8d 15 e9 3c 00 00 	lea    rdx,[rip+0x3ce9]        # c2e7 <RedisModule_OnLoad@@Base+0x1ec8>
    85fe:	48 89 d7             	mov    rdi,rdx
    8601:	ff d0                	call   rax
    8603:	48 8d 05 6e 72 00 00 	lea    rax,[rip+0x726e]        # f878 <RedisModule_GetApi@@Base>
    860a:	48 8b 00             	mov    rax,QWORD PTR [rax]
    860d:	48 8d 15 44 6b 00 00 	lea    rdx,[rip+0x6b44]        # f158 <RedisModule_SaveFloat@@Base>
    8614:	48 89 d6             	mov    rsi,rdx
    8617:	48 8d 15 e0 3c 00 00 	lea    rdx,[rip+0x3ce0]        # c2fe <RedisModule_OnLoad@@Base+0x1edf>
    861e:	48 89 d7             	mov    rdi,rdx
    8621:	ff d0                	call   rax
    8623:	48 8d 05 4e 72 00 00 	lea    rax,[rip+0x724e]        # f878 <RedisModule_GetApi@@Base>
    862a:	48 8b 00             	mov    rax,QWORD PTR [rax]
    862d:	48 8d 15 fc 74 00 00 	lea    rdx,[rip+0x74fc]        # fb30 <RedisModule_LoadFloat@@Base>
    8634:	48 89 d6             	mov    rsi,rdx
    8637:	48 8d 15 d6 3c 00 00 	lea    rdx,[rip+0x3cd6]        # c314 <RedisModule_OnLoad@@Base+0x1ef5>
    863e:	48 89 d7             	mov    rdi,rdx
    8641:	ff d0                	call   rax
    8643:	48 8d 05 2e 72 00 00 	lea    rax,[rip+0x722e]        # f878 <RedisModule_GetApi@@Base>
    864a:	48 8b 00             	mov    rax,QWORD PTR [rax]
    864d:	48 8d 15 1c 6f 00 00 	lea    rdx,[rip+0x6f1c]        # f570 <RedisModule_SaveLongDouble@@Base>
    8654:	48 89 d6             	mov    rsi,rdx
    8657:	48 8d 15 cc 3c 00 00 	lea    rdx,[rip+0x3ccc]        # c32a <RedisModule_OnLoad@@Base+0x1f0b>
    865e:	48 89 d7             	mov    rdi,rdx
    8661:	ff d0                	call   rax
    8663:	48 8d 05 0e 72 00 00 	lea    rax,[rip+0x720e]        # f878 <RedisModule_GetApi@@Base>
    866a:	48 8b 00             	mov    rax,QWORD PTR [rax]
    866d:	48 8d 15 ac 6f 00 00 	lea    rdx,[rip+0x6fac]        # f620 <RedisModule_LoadLongDouble@@Base>
    8674:	48 89 d6             	mov    rsi,rdx
    8677:	48 8d 15 c7 3c 00 00 	lea    rdx,[rip+0x3cc7]        # c345 <RedisModule_OnLoad@@Base+0x1f26>
    867e:	48 89 d7             	mov    rdi,rdx
    8681:	ff d0                	call   rax
    8683:	48 8d 05 ee 71 00 00 	lea    rax,[rip+0x71ee]        # f878 <RedisModule_GetApi@@Base>
    868a:	48 8b 00             	mov    rax,QWORD PTR [rax]
    868d:	48 8d 15 3c 71 00 00 	lea    rdx,[rip+0x713c]        # f7d0 <RedisModule_SaveDataTypeToString@@Base>
    8694:	48 89 d6             	mov    rsi,rdx
    8697:	48 8d 15 c2 3c 00 00 	lea    rdx,[rip+0x3cc2]        # c360 <RedisModule_OnLoad@@Base+0x1f41>
    869e:	48 89 d7             	mov    rdi,rdx
    86a1:	ff d0                	call   rax
    86a3:	48 8d 05 ce 71 00 00 	lea    rax,[rip+0x71ce]        # f878 <RedisModule_GetApi@@Base>
    86aa:	48 8b 00             	mov    rax,QWORD PTR [rax]
    86ad:	48 8d 15 0c 70 00 00 	lea    rdx,[rip+0x700c]        # f6c0 <RedisModule_LoadDataTypeFromString@@Base>
    86b4:	48 89 d6             	mov    rsi,rdx
    86b7:	48 8d 15 ca 3c 00 00 	lea    rdx,[rip+0x3cca]        # c388 <RedisModule_OnLoad@@Base+0x1f69>
    86be:	48 89 d7             	mov    rdi,rdx
    86c1:	ff d0                	call   rax
    86c3:	48 8d 05 ae 71 00 00 	lea    rax,[rip+0x71ae]        # f878 <RedisModule_GetApi@@Base>
    86ca:	48 8b 00             	mov    rax,QWORD PTR [rax]
    86cd:	48 8d 15 d4 71 00 00 	lea    rdx,[rip+0x71d4]        # f8a8 <RedisModule_LoadDataTypeFromStringEncver@@Base>
    86d4:	48 89 d6             	mov    rsi,rdx
    86d7:	48 8d 15 d2 3c 00 00 	lea    rdx,[rip+0x3cd2]        # c3b0 <RedisModule_OnLoad@@Base+0x1f91>
    86de:	48 89 d7             	mov    rdi,rdx
    86e1:	ff d0                	call   rax
    86e3:	48 8d 05 8e 71 00 00 	lea    rax,[rip+0x718e]        # f878 <RedisModule_GetApi@@Base>
    86ea:	48 8b 00             	mov    rax,QWORD PTR [rax]
    86ed:	48 8d 15 f4 6a 00 00 	lea    rdx,[rip+0x6af4]        # f1e8 <RedisModule_EmitAOF@@Base>
    86f4:	48 89 d6             	mov    rsi,rdx
    86f7:	48 8d 15 db 3c 00 00 	lea    rdx,[rip+0x3cdb]        # c3d9 <RedisModule_OnLoad@@Base+0x1fba>
    86fe:	48 89 d7             	mov    rdi,rdx
    8701:	ff d0                	call   rax
    8703:	48 8d 05 6e 71 00 00 	lea    rax,[rip+0x716e]        # f878 <RedisModule_GetApi@@Base>
    870a:	48 8b 00             	mov    rax,QWORD PTR [rax]
    870d:	48 8d 15 1c 71 00 00 	lea    rdx,[rip+0x711c]        # f830 <RedisModule_Log@@Base>
    8714:	48 89 d6             	mov    rsi,rdx
    8717:	48 8d 15 cf 3c 00 00 	lea    rdx,[rip+0x3ccf]        # c3ed <RedisModule_OnLoad@@Base+0x1fce>
    871e:	48 89 d7             	mov    rdi,rdx
    8721:	ff d0                	call   rax
    8723:	48 8d 05 4e 71 00 00 	lea    rax,[rip+0x714e]        # f878 <RedisModule_GetApi@@Base>
    872a:	48 8b 00             	mov    rax,QWORD PTR [rax]
    872d:	48 8d 15 14 70 00 00 	lea    rdx,[rip+0x7014]        # f748 <RedisModule_LogIOError@@Base>
    8734:	48 89 d6             	mov    rsi,rdx
    8737:	48 8d 15 bf 3c 00 00 	lea    rdx,[rip+0x3cbf]        # c3fd <RedisModule_OnLoad@@Base+0x1fde>
    873e:	48 89 d7             	mov    rdi,rdx
    8741:	ff d0                	call   rax
    8743:	48 8d 05 2e 71 00 00 	lea    rax,[rip+0x712e]        # f878 <RedisModule_GetApi@@Base>
    874a:	48 8b 00             	mov    rax,QWORD PTR [rax]
    874d:	48 8d 15 1c 70 00 00 	lea    rdx,[rip+0x701c]        # f770 <RedisModule__Assert@@Base>
    8754:	48 89 d6             	mov    rsi,rdx
    8757:	48 8d 15 b6 3c 00 00 	lea    rdx,[rip+0x3cb6]        # c414 <RedisModule_OnLoad@@Base+0x1ff5>
    875e:	48 89 d7             	mov    rdi,rdx
    8761:	ff d0                	call   rax
    8763:	48 8d 05 0e 71 00 00 	lea    rax,[rip+0x710e]        # f878 <RedisModule_GetApi@@Base>
    876a:	48 8b 00             	mov    rax,QWORD PTR [rax]
    876d:	48 8d 15 ec 6f 00 00 	lea    rdx,[rip+0x6fec]        # f760 <RedisModule_LatencyAddSample@@Base>
    8774:	48 89 d6             	mov    rsi,rdx
    8777:	48 8d 15 aa 3c 00 00 	lea    rdx,[rip+0x3caa]        # c428 <RedisModule_OnLoad@@Base+0x2009>
    877e:	48 89 d7             	mov    rdi,rdx
    8781:	ff d0                	call   rax
    8783:	48 8d 05 ee 70 00 00 	lea    rax,[rip+0x70ee]        # f878 <RedisModule_GetApi@@Base>
    878a:	48 8b 00             	mov    rax,QWORD PTR [rax]
    878d:	48 8d 15 64 70 00 00 	lea    rdx,[rip+0x7064]        # f7f8 <RedisModule_StringAppendBuffer@@Base>
    8794:	48 89 d6             	mov    rsi,rdx
    8797:	48 8d 15 aa 3c 00 00 	lea    rdx,[rip+0x3caa]        # c448 <RedisModule_OnLoad@@Base+0x2029>
    879e:	48 89 d7             	mov    rdi,rdx
    87a1:	ff d0                	call   rax
    87a3:	48 8d 05 ce 70 00 00 	lea    rax,[rip+0x70ce]        # f878 <RedisModule_GetApi@@Base>
    87aa:	48 8b 00             	mov    rax,QWORD PTR [rax]
    87ad:	48 8d 15 8c 6e 00 00 	lea    rdx,[rip+0x6e8c]        # f640 <RedisModule_TrimStringAllocation@@Base>
    87b4:	48 89 d6             	mov    rsi,rdx
    87b7:	48 8d 15 aa 3c 00 00 	lea    rdx,[rip+0x3caa]        # c468 <RedisModule_OnLoad@@Base+0x2049>
    87be:	48 89 d7             	mov    rdi,rdx
    87c1:	ff d0                	call   rax
    87c3:	48 8d 05 ae 70 00 00 	lea    rax,[rip+0x70ae]        # f878 <RedisModule_GetApi@@Base>
    87ca:	48 8b 00             	mov    rax,QWORD PTR [rax]
    87cd:	48 8d 15 1c 70 00 00 	lea    rdx,[rip+0x701c]        # f7f0 <RedisModule_RetainString@@Base>
    87d4:	48 89 d6             	mov    rsi,rdx
    87d7:	48 8d 15 ab 3c 00 00 	lea    rdx,[rip+0x3cab]        # c489 <RedisModule_OnLoad@@Base+0x206a>
    87de:	48 89 d7             	mov    rdi,rdx
    87e1:	ff d0                	call   rax
    87e3:	48 8d 05 8e 70 00 00 	lea    rax,[rip+0x708e]        # f878 <RedisModule_GetApi@@Base>
    87ea:	48 8b 00             	mov    rax,QWORD PTR [rax]
    87ed:	48 8d 15 14 71 00 00 	lea    rdx,[rip+0x7114]        # f908 <RedisModule_HoldString@@Base>
    87f4:	48 89 d6             	mov    rsi,rdx
    87f7:	48 8d 15 a4 3c 00 00 	lea    rdx,[rip+0x3ca4]        # c4a2 <RedisModule_OnLoad@@Base+0x2083>
    87fe:	48 89 d7             	mov    rdi,rdx
    8801:	ff d0                	call   rax
    8803:	48 8d 05 6e 70 00 00 	lea    rax,[rip+0x706e]        # f878 <RedisModule_GetApi@@Base>
    880a:	48 8b 00             	mov    rax,QWORD PTR [rax]
    880d:	48 8d 15 54 6a 00 00 	lea    rdx,[rip+0x6a54]        # f268 <RedisModule_StringCompare@@Base>
    8814:	48 89 d6             	mov    rsi,rdx
    8817:	48 8d 15 9b 3c 00 00 	lea    rdx,[rip+0x3c9b]        # c4b9 <RedisModule_OnLoad@@Base+0x209a>
    881e:	48 89 d7             	mov    rdi,rdx
    8821:	ff d0                	call   rax
    8823:	48 8d 05 4e 70 00 00 	lea    rax,[rip+0x704e]        # f878 <RedisModule_GetApi@@Base>
    882a:	48 8b 00             	mov    rax,QWORD PTR [rax]
    882d:	48 8d 15 a4 68 00 00 	lea    rdx,[rip+0x68a4]        # f0d8 <RedisModule_GetContextFromIO@@Base>
    8834:	48 89 d6             	mov    rsi,rdx
    8837:	48 8d 15 95 3c 00 00 	lea    rdx,[rip+0x3c95]        # c4d3 <RedisModule_OnLoad@@Base+0x20b4>
    883e:	48 89 d7             	mov    rdi,rdx
    8841:	ff d0                	call   rax
    8843:	48 8d 05 2e 70 00 00 	lea    rax,[rip+0x702e]        # f878 <RedisModule_GetApi@@Base>
    884a:	48 8b 00             	mov    rax,QWORD PTR [rax]
    884d:	48 8d 15 e4 6d 00 00 	lea    rdx,[rip+0x6de4]        # f638 <RedisModule_GetKeyNameFromIO@@Base>
    8854:	48 89 d6             	mov    rsi,rdx
    8857:	48 8d 15 92 3c 00 00 	lea    rdx,[rip+0x3c92]        # c4f0 <RedisModule_OnLoad@@Base+0x20d1>
    885e:	48 89 d7             	mov    rdi,rdx
    8861:	ff d0                	call   rax
    8863:	48 8d 05 0e 70 00 00 	lea    rax,[rip+0x700e]        # f878 <RedisModule_GetApi@@Base>
    886a:	48 8b 00             	mov    rax,QWORD PTR [rax]
    886d:	48 8d 15 dc 6b 00 00 	lea    rdx,[rip+0x6bdc]        # f450 <RedisModule_GetKeyNameFromModuleKey@@Base>
    8874:	48 89 d6             	mov    rsi,rdx
    8877:	48 8d 15 92 3c 00 00 	lea    rdx,[rip+0x3c92]        # c510 <RedisModule_OnLoad@@Base+0x20f1>
    887e:	48 89 d7             	mov    rdi,rdx
    8881:	ff d0                	call   rax
    8883:	48 8d 05 ee 6f 00 00 	lea    rax,[rip+0x6fee]        # f878 <RedisModule_GetApi@@Base>
    888a:	48 8b 00             	mov    rax,QWORD PTR [rax]
    888d:	48 8d 15 c4 6d 00 00 	lea    rdx,[rip+0x6dc4]        # f658 <RedisModule_GetDbIdFromModuleKey@@Base>
    8894:	48 89 d6             	mov    rsi,rdx
    8897:	48 8d 15 9a 3c 00 00 	lea    rdx,[rip+0x3c9a]        # c538 <RedisModule_OnLoad@@Base+0x2119>
    889e:	48 89 d7             	mov    rdi,rdx
    88a1:	ff d0                	call   rax
    88a3:	48 8d 05 ce 6f 00 00 	lea    rax,[rip+0x6fce]        # f878 <RedisModule_GetApi@@Base>
    88aa:	48 8b 00             	mov    rax,QWORD PTR [rax]
    88ad:	48 8d 15 1c 71 00 00 	lea    rdx,[rip+0x711c]        # f9d0 <RedisModule_GetDbIdFromIO@@Base>
    88b4:	48 89 d6             	mov    rsi,rdx
    88b7:	48 8d 15 9b 3c 00 00 	lea    rdx,[rip+0x3c9b]        # c559 <RedisModule_OnLoad@@Base+0x213a>
    88be:	48 89 d7             	mov    rdi,rdx
    88c1:	ff d0                	call   rax
    88c3:	48 8d 05 ae 6f 00 00 	lea    rax,[rip+0x6fae]        # f878 <RedisModule_GetApi@@Base>
    88ca:	48 8b 00             	mov    rax,QWORD PTR [rax]
    88cd:	48 8d 15 2c 6d 00 00 	lea    rdx,[rip+0x6d2c]        # f600 <RedisModule_GetKeyNameFromOptCtx@@Base>
    88d4:	48 89 d6             	mov    rsi,rdx
    88d7:	48 8d 15 9a 3c 00 00 	lea    rdx,[rip+0x3c9a]        # c578 <RedisModule_OnLoad@@Base+0x2159>
    88de:	48 89 d7             	mov    rdi,rdx
    88e1:	ff d0                	call   rax
    88e3:	48 8d 05 8e 6f 00 00 	lea    rax,[rip+0x6f8e]        # f878 <RedisModule_GetApi@@Base>
    88ea:	48 8b 00             	mov    rax,QWORD PTR [rax]
    88ed:	48 8d 15 94 6a 00 00 	lea    rdx,[rip+0x6a94]        # f388 <RedisModule_GetToKeyNameFromOptCtx@@Base>
    88f4:	48 89 d6             	mov    rsi,rdx
    88f7:	48 8d 15 a2 3c 00 00 	lea    rdx,[rip+0x3ca2]        # c5a0 <RedisModule_OnLoad@@Base+0x2181>
    88fe:	48 89 d7             	mov    rdi,rdx
    8901:	ff d0                	call   rax
    8903:	48 8d 05 6e 6f 00 00 	lea    rax,[rip+0x6f6e]        # f878 <RedisModule_GetApi@@Base>
    890a:	48 8b 00             	mov    rax,QWORD PTR [rax]
    890d:	48 8d 15 f4 6b 00 00 	lea    rdx,[rip+0x6bf4]        # f508 <RedisModule_GetDbIdFromOptCtx@@Base>
    8914:	48 89 d6             	mov    rsi,rdx
    8917:	48 8d 15 a5 3c 00 00 	lea    rdx,[rip+0x3ca5]        # c5c3 <RedisModule_OnLoad@@Base+0x21a4>
    891e:	48 89 d7             	mov    rdi,rdx
    8921:	ff d0                	call   rax
    8923:	48 8d 05 4e 6f 00 00 	lea    rax,[rip+0x6f4e]        # f878 <RedisModule_GetApi@@Base>
    892a:	48 8b 00             	mov    rax,QWORD PTR [rax]
    892d:	48 8d 15 ec 6a 00 00 	lea    rdx,[rip+0x6aec]        # f420 <RedisModule_GetToDbIdFromOptCtx@@Base>
    8934:	48 89 d6             	mov    rsi,rdx
    8937:	48 8d 15 aa 3c 00 00 	lea    rdx,[rip+0x3caa]        # c5e8 <RedisModule_OnLoad@@Base+0x21c9>
    893e:	48 89 d7             	mov    rdi,rdx
    8941:	ff d0                	call   rax
    8943:	48 8d 05 2e 6f 00 00 	lea    rax,[rip+0x6f2e]        # f878 <RedisModule_GetApi@@Base>
    894a:	48 8b 00             	mov    rax,QWORD PTR [rax]
    894d:	48 8d 15 94 6b 00 00 	lea    rdx,[rip+0x6b94]        # f4e8 <RedisModule_Milliseconds@@Base>
    8954:	48 89 d6             	mov    rsi,rdx
    8957:	48 8d 15 aa 3c 00 00 	lea    rdx,[rip+0x3caa]        # c608 <RedisModule_OnLoad@@Base+0x21e9>
    895e:	48 89 d7             	mov    rdi,rdx
    8961:	ff d0                	call   rax
    8963:	48 8d 05 0e 6f 00 00 	lea    rax,[rip+0x6f0e]        # f878 <RedisModule_GetApi@@Base>
    896a:	48 8b 00             	mov    rax,QWORD PTR [rax]
    896d:	48 8d 15 24 70 00 00 	lea    rdx,[rip+0x7024]        # f998 <RedisModule_MonotonicMicroseconds@@Base>
    8974:	48 89 d6             	mov    rsi,rdx
    8977:	48 8d 15 aa 3c 00 00 	lea    rdx,[rip+0x3caa]        # c628 <RedisModule_OnLoad@@Base+0x2209>
    897e:	48 89 d7             	mov    rdi,rdx
    8981:	ff d0                	call   rax
    8983:	48 8d 05 ee 6e 00 00 	lea    rax,[rip+0x6eee]        # f878 <RedisModule_GetApi@@Base>
    898a:	48 8b 00             	mov    rax,QWORD PTR [rax]
    898d:	48 8d 15 b4 69 00 00 	lea    rdx,[rip+0x69b4]        # f348 <RedisModule_Microseconds@@Base>
    8994:	48 89 d6             	mov    rsi,rdx
    8997:	48 8d 15 ac 3c 00 00 	lea    rdx,[rip+0x3cac]        # c64a <RedisModule_OnLoad@@Base+0x222b>
    899e:	48 89 d7             	mov    rdi,rdx
    89a1:	ff d0                	call   rax
    89a3:	48 8d 05 ce 6e 00 00 	lea    rax,[rip+0x6ece]        # f878 <RedisModule_GetApi@@Base>
    89aa:	48 8b 00             	mov    rax,QWORD PTR [rax]
    89ad:	48 8d 15 84 71 00 00 	lea    rdx,[rip+0x7184]        # fb38 <RedisModule_CachedMicroseconds@@Base>
    89b4:	48 89 d6             	mov    rsi,rdx
    89b7:	48 8d 15 aa 3c 00 00 	lea    rdx,[rip+0x3caa]        # c668 <RedisModule_OnLoad@@Base+0x2249>
    89be:	48 89 d7             	mov    rdi,rdx
    89c1:	ff d0                	call   rax
    89c3:	48 8d 05 ae 6e 00 00 	lea    rax,[rip+0x6eae]        # f878 <RedisModule_GetApi@@Base>
    89ca:	48 8b 00             	mov    rax,QWORD PTR [rax]
    89cd:	48 8d 15 f4 6c 00 00 	lea    rdx,[rip+0x6cf4]        # f6c8 <RedisModule_DigestAddStringBuffer@@Base>
    89d4:	48 89 d6             	mov    rsi,rdx
    89d7:	48 8d 15 aa 3c 00 00 	lea    rdx,[rip+0x3caa]        # c688 <RedisModule_OnLoad@@Base+0x2269>
    89de:	48 89 d7             	mov    rdi,rdx
    89e1:	ff d0                	call   rax
    89e3:	48 8d 05 8e 6e 00 00 	lea    rax,[rip+0x6e8e]        # f878 <RedisModule_GetApi@@Base>
    89ea:	48 8b 00             	mov    rax,QWORD PTR [rax]
    89ed:	48 8d 15 fc 68 00 00 	lea    rdx,[rip+0x68fc]        # f2f0 <RedisModule_DigestAddLongLong@@Base>
    89f4:	48 89 d6             	mov    rsi,rdx
    89f7:	48 8d 15 ac 3c 00 00 	lea    rdx,[rip+0x3cac]        # c6aa <RedisModule_OnLoad@@Base+0x228b>
    89fe:	48 89 d7             	mov    rdi,rdx
    8a01:	ff d0                	call   rax
    8a03:	48 8d 05 6e 6e 00 00 	lea    rax,[rip+0x6e6e]        # f878 <RedisModule_GetApi@@Base>
    8a0a:	48 8b 00             	mov    rax,QWORD PTR [rax]
    8a0d:	48 8d 15 44 6d 00 00 	lea    rdx,[rip+0x6d44]        # f758 <RedisModule_DigestEndSequence@@Base>
    8a14:	48 89 d6             	mov    rsi,rdx
    8a17:	48 8d 15 aa 3c 00 00 	lea    rdx,[rip+0x3caa]        # c6c8 <RedisModule_OnLoad@@Base+0x22a9>
    8a1e:	48 89 d7             	mov    rdi,rdx
    8a21:	ff d0                	call   rax
    8a23:	48 8d 05 4e 6e 00 00 	lea    rax,[rip+0x6e4e]        # f878 <RedisModule_GetApi@@Base>
    8a2a:	48 8b 00             	mov    rax,QWORD PTR [rax]
    8a2d:	48 8d 15 e4 6e 00 00 	lea    rdx,[rip+0x6ee4]        # f918 <RedisModule_GetKeyNameFromDigest@@Base>
    8a34:	48 89 d6             	mov    rsi,rdx
    8a37:	48 8d 15 aa 3c 00 00 	lea    rdx,[rip+0x3caa]        # c6e8 <RedisModule_OnLoad@@Base+0x22c9>
    8a3e:	48 89 d7             	mov    rdi,rdx
    8a41:	ff d0                	call   rax
    8a43:	48 8d 05 2e 6e 00 00 	lea    rax,[rip+0x6e2e]        # f878 <RedisModule_GetApi@@Base>
    8a4a:	48 8b 00             	mov    rax,QWORD PTR [rax]
    8a4d:	48 8d 15 1c 6f 00 00 	lea    rdx,[rip+0x6f1c]        # f970 <RedisModule_GetDbIdFromDigest@@Base>
    8a54:	48 89 d6             	mov    rsi,rdx
    8a57:	48 8d 15 ab 3c 00 00 	lea    rdx,[rip+0x3cab]        # c709 <RedisModule_OnLoad@@Base+0x22ea>
    8a5e:	48 89 d7             	mov    rdi,rdx
    8a61:	ff d0                	call   rax
    8a63:	48 8d 05 0e 6e 00 00 	lea    rax,[rip+0x6e0e]        # f878 <RedisModule_GetApi@@Base>
    8a6a:	48 8b 00             	mov    rax,QWORD PTR [rax]
    8a6d:	48 8d 15 44 67 00 00 	lea    rdx,[rip+0x6744]        # f1b8 <RedisModule_CreateDict@@Base>
    8a74:	48 89 d6             	mov    rsi,rdx
    8a77:	48 8d 15 a9 3c 00 00 	lea    rdx,[rip+0x3ca9]        # c727 <RedisModule_OnLoad@@Base+0x2308>
    8a7e:	48 89 d7             	mov    rdi,rdx
    8a81:	ff d0                	call   rax
    8a83:	48 8d 05 ee 6d 00 00 	lea    rax,[rip+0x6dee]        # f878 <RedisModule_GetApi@@Base>
    8a8a:	48 8b 00             	mov    rax,QWORD PTR [rax]
    8a8d:	48 8d 15 fc 6b 00 00 	lea    rdx,[rip+0x6bfc]        # f690 <RedisModule_FreeDict@@Base>
    8a94:	48 89 d6             	mov    rsi,rdx
    8a97:	48 8d 15 a0 3c 00 00 	lea    rdx,[rip+0x3ca0]        # c73e <RedisModule_OnLoad@@Base+0x231f>
    8a9e:	48 89 d7             	mov    rdi,rdx
    8aa1:	ff d0                	call   rax
    8aa3:	48 8d 05 ce 6d 00 00 	lea    rax,[rip+0x6dce]        # f878 <RedisModule_GetApi@@Base>
    8aaa:	48 8b 00             	mov    rax,QWORD PTR [rax]
    8aad:	48 8d 15 24 70 00 00 	lea    rdx,[rip+0x7024]        # fad8 <RedisModule_DictSize@@Base>
    8ab4:	48 89 d6             	mov    rsi,rdx
    8ab7:	48 8d 15 95 3c 00 00 	lea    rdx,[rip+0x3c95]        # c753 <RedisModule_OnLoad@@Base+0x2334>
    8abe:	48 89 d7             	mov    rdi,rdx
    8ac1:	ff d0                	call   rax
    8ac3:	48 8d 05 ae 6d 00 00 	lea    rax,[rip+0x6dae]        # f878 <RedisModule_GetApi@@Base>
    8aca:	48 8b 00             	mov    rax,QWORD PTR [rax]
    8acd:	48 8d 15 ec 65 00 00 	lea    rdx,[rip+0x65ec]        # f0c0 <RedisModule_DictSetC@@Base>
    8ad4:	48 89 d6             	mov    rsi,rdx
    8ad7:	48 8d 15 8a 3c 00 00 	lea    rdx,[rip+0x3c8a]        # c768 <RedisModule_OnLoad@@Base+0x2349>
    8ade:	48 89 d7             	mov    rdi,rdx
    8ae1:	ff d0                	call   rax
    8ae3:	48 8d 05 8e 6d 00 00 	lea    rax,[rip+0x6d8e]        # f878 <RedisModule_GetApi@@Base>
    8aea:	48 8b 00             	mov    rax,QWORD PTR [rax]
    8aed:	48 8d 15 b4 6e 00 00 	lea    rdx,[rip+0x6eb4]        # f9a8 <RedisModule_DictReplaceC@@Base>
    8af4:	48 89 d6             	mov    rsi,rdx
    8af7:	48 8d 15 7f 3c 00 00 	lea    rdx,[rip+0x3c7f]        # c77d <RedisModule_OnLoad@@Base+0x235e>
    8afe:	48 89 d7             	mov    rdi,rdx
    8b01:	ff d0                	call   rax
    8b03:	48 8d 05 6e 6d 00 00 	lea    rax,[rip+0x6d6e]        # f878 <RedisModule_GetApi@@Base>
    8b0a:	48 8b 00             	mov    rax,QWORD PTR [rax]
    8b0d:	48 8d 15 b4 68 00 00 	lea    rdx,[rip+0x68b4]        # f3c8 <RedisModule_DictSet@@Base>
    8b14:	48 89 d6             	mov    rsi,rdx
    8b17:	48 8d 15 78 3c 00 00 	lea    rdx,[rip+0x3c78]        # c796 <RedisModule_OnLoad@@Base+0x2377>
    8b1e:	48 89 d7             	mov    rdi,rdx
    8b21:	ff d0                	call   rax
    8b23:	48 8d 05 4e 6d 00 00 	lea    rax,[rip+0x6d4e]        # f878 <RedisModule_GetApi@@Base>
    8b2a:	48 8b 00             	mov    rax,QWORD PTR [rax]
    8b2d:	48 8d 15 94 6d 00 00 	lea    rdx,[rip+0x6d94]        # f8c8 <RedisModule_DictReplace@@Base>
    8b34:	48 89 d6             	mov    rsi,rdx
    8b37:	48 8d 15 6c 3c 00 00 	lea    rdx,[rip+0x3c6c]        # c7aa <RedisModule_OnLoad@@Base+0x238b>
    8b3e:	48 89 d7             	mov    rdi,rdx
    8b41:	ff d0                	call   rax
    8b43:	48 8d 05 2e 6d 00 00 	lea    rax,[rip+0x6d2e]        # f878 <RedisModule_GetApi@@Base>
    8b4a:	48 8b 00             	mov    rax,QWORD PTR [rax]
    8b4d:	48 8d 15 34 6f 00 00 	lea    rdx,[rip+0x6f34]        # fa88 <RedisModule_DictGetC@@Base>
    8b54:	48 89 d6             	mov    rsi,rdx
    8b57:	48 8d 15 64 3c 00 00 	lea    rdx,[rip+0x3c64]        # c7c2 <RedisModule_OnLoad@@Base+0x23a3>
    8b5e:	48 89 d7             	mov    rdi,rdx
    8b61:	ff d0                	call   rax
    8b63:	48 8d 05 0e 6d 00 00 	lea    rax,[rip+0x6d0e]        # f878 <RedisModule_GetApi@@Base>
    8b6a:	48 8b 00             	mov    rax,QWORD PTR [rax]
    8b6d:	48 8d 15 9c 67 00 00 	lea    rdx,[rip+0x679c]        # f310 <RedisModule_DictGet@@Base>
    8b74:	48 89 d6             	mov    rsi,rdx
    8b77:	48 8d 15 59 3c 00 00 	lea    rdx,[rip+0x3c59]        # c7d7 <RedisModule_OnLoad@@Base+0x23b8>
    8b7e:	48 89 d7             	mov    rdi,rdx
    8b81:	ff d0                	call   rax
    8b83:	48 8d 05 ee 6c 00 00 	lea    rax,[rip+0x6cee]        # f878 <RedisModule_GetApi@@Base>
    8b8a:	48 8b 00             	mov    rax,QWORD PTR [rax]
    8b8d:	48 8d 15 2c 6a 00 00 	lea    rdx,[rip+0x6a2c]        # f5c0 <RedisModule_DictDelC@@Base>
    8b94:	48 89 d6             	mov    rsi,rdx
    8b97:	48 8d 15 4d 3c 00 00 	lea    rdx,[rip+0x3c4d]        # c7eb <RedisModule_OnLoad@@Base+0x23cc>
    8b9e:	48 89 d7             	mov    rdi,rdx
    8ba1:	ff d0                	call   rax
    8ba3:	48 8d 05 ce 6c 00 00 	lea    rax,[rip+0x6cce]        # f878 <RedisModule_GetApi@@Base>
    8baa:	48 8b 00             	mov    rax,QWORD PTR [rax]
    8bad:	48 8d 15 94 6d 00 00 	lea    rdx,[rip+0x6d94]        # f948 <RedisModule_DictDel@@Base>
    8bb4:	48 89 d6             	mov    rsi,rdx
    8bb7:	48 8d 15 42 3c 00 00 	lea    rdx,[rip+0x3c42]        # c800 <RedisModule_OnLoad@@Base+0x23e1>
    8bbe:	48 89 d7             	mov    rdi,rdx
    8bc1:	ff d0                	call   rax
    8bc3:	48 8d 05 ae 6c 00 00 	lea    rax,[rip+0x6cae]        # f878 <RedisModule_GetApi@@Base>
    8bca:	48 8b 00             	mov    rax,QWORD PTR [rax]
    8bcd:	48 8d 15 ec 65 00 00 	lea    rdx,[rip+0x65ec]        # f1c0 <RedisModule_DictIteratorStartC@@Base>
    8bd4:	48 89 d6             	mov    rsi,rdx
    8bd7:	48 8d 15 3a 3c 00 00 	lea    rdx,[rip+0x3c3a]        # c818 <RedisModule_OnLoad@@Base+0x23f9>
    8bde:	48 89 d7             	mov    rdi,rdx
    8be1:	ff d0                	call   rax
    8be3:	48 8d 05 8e 6c 00 00 	lea    rax,[rip+0x6c8e]        # f878 <RedisModule_GetApi@@Base>
    8bea:	48 8b 00             	mov    rax,QWORD PTR [rax]
    8bed:	48 8d 15 fc 6c 00 00 	lea    rdx,[rip+0x6cfc]        # f8f0 <RedisModule_DictIteratorStart@@Base>
    8bf4:	48 89 d6             	mov    rsi,rdx
    8bf7:	48 8d 15 39 3c 00 00 	lea    rdx,[rip+0x3c39]        # c837 <RedisModule_OnLoad@@Base+0x2418>
    8bfe:	48 89 d7             	mov    rdi,rdx
    8c01:	ff d0                	call   rax
    8c03:	48 8d 05 6e 6c 00 00 	lea    rax,[rip+0x6c6e]        # f878 <RedisModule_GetApi@@Base>
    8c0a:	48 8b 00             	mov    rax,QWORD PTR [rax]
    8c0d:	48 8d 15 e4 64 00 00 	lea    rdx,[rip+0x64e4]        # f0f8 <RedisModule_DictIteratorStop@@Base>
    8c14:	48 89 d6             	mov    rsi,rdx
    8c17:	48 8d 15 37 3c 00 00 	lea    rdx,[rip+0x3c37]        # c855 <RedisModule_OnLoad@@Base+0x2436>
    8c1e:	48 89 d7             	mov    rdi,rdx
    8c21:	ff d0                	call   rax
    8c23:	48 8d 05 4e 6c 00 00 	lea    rax,[rip+0x6c4e]        # f878 <RedisModule_GetApi@@Base>
    8c2a:	48 8b 00             	mov    rax,QWORD PTR [rax]
    8c2d:	48 8d 15 e4 69 00 00 	lea    rdx,[rip+0x69e4]        # f618 <RedisModule_DictIteratorReseekC@@Base>
    8c34:	48 89 d6             	mov    rsi,rdx
    8c37:	48 8d 15 3a 3c 00 00 	lea    rdx,[rip+0x3c3a]        # c878 <RedisModule_OnLoad@@Base+0x2459>
    8c3e:	48 89 d7             	mov    rdi,rdx
    8c41:	ff d0                	call   rax
    8c43:	48 8d 05 2e 6c 00 00 	lea    rax,[rip+0x6c2e]        # f878 <RedisModule_GetApi@@Base>
    8c4a:	48 8b 00             	mov    rax,QWORD PTR [rax]
    8c4d:	48 8d 15 dc 6d 00 00 	lea    rdx,[rip+0x6ddc]        # fa30 <RedisModule_DictIteratorReseek@@Base>
    8c54:	48 89 d6             	mov    rsi,rdx
    8c57:	48 8d 15 3a 3c 00 00 	lea    rdx,[rip+0x3c3a]        # c898 <RedisModule_OnLoad@@Base+0x2479>
    8c5e:	48 89 d7             	mov    rdi,rdx
    8c61:	ff d0                	call   rax
    8c63:	48 8d 05 0e 6c 00 00 	lea    rax,[rip+0x6c0e]        # f878 <RedisModule_GetApi@@Base>
    8c6a:	48 8b 00             	mov    rax,QWORD PTR [rax]
    8c6d:	48 8d 15 74 6d 00 00 	lea    rdx,[rip+0x6d74]        # f9e8 <RedisModule_DictNextC@@Base>
    8c74:	48 89 d6             	mov    rsi,rdx
    8c77:	48 8d 15 39 3c 00 00 	lea    rdx,[rip+0x3c39]        # c8b7 <RedisModule_OnLoad@@Base+0x2498>
    8c7e:	48 89 d7             	mov    rdi,rdx
    8c81:	ff d0                	call   rax
    8c83:	48 8d 05 ee 6b 00 00 	lea    rax,[rip+0x6bee]        # f878 <RedisModule_GetApi@@Base>
    8c8a:	48 8b 00             	mov    rax,QWORD PTR [rax]
    8c8d:	48 8d 15 0c 6e 00 00 	lea    rdx,[rip+0x6e0c]        # faa0 <RedisModule_DictPrevC@@Base>
    8c94:	48 89 d6             	mov    rsi,rdx
    8c97:	48 8d 15 2f 3c 00 00 	lea    rdx,[rip+0x3c2f]        # c8cd <RedisModule_OnLoad@@Base+0x24ae>
    8c9e:	48 89 d7             	mov    rdi,rdx
    8ca1:	ff d0                	call   rax
    8ca3:	48 8d 05 ce 6b 00 00 	lea    rax,[rip+0x6bce]        # f878 <RedisModule_GetApi@@Base>
    8caa:	48 8b 00             	mov    rax,QWORD PTR [rax]
    8cad:	48 8d 15 54 6e 00 00 	lea    rdx,[rip+0x6e54]        # fb08 <RedisModule_DictNext@@Base>
    8cb4:	48 89 d6             	mov    rsi,rdx
    8cb7:	48 8d 15 25 3c 00 00 	lea    rdx,[rip+0x3c25]        # c8e3 <RedisModule_OnLoad@@Base+0x24c4>
    8cbe:	48 89 d7             	mov    rdi,rdx
    8cc1:	ff d0                	call   rax
    8cc3:	48 8d 05 ae 6b 00 00 	lea    rax,[rip+0x6bae]        # f878 <RedisModule_GetApi@@Base>
    8cca:	48 8b 00             	mov    rax,QWORD PTR [rax]
    8ccd:	48 8d 15 64 65 00 00 	lea    rdx,[rip+0x6564]        # f238 <RedisModule_DictPrev@@Base>
    8cd4:	48 89 d6             	mov    rsi,rdx
    8cd7:	48 8d 15 1a 3c 00 00 	lea    rdx,[rip+0x3c1a]        # c8f8 <RedisModule_OnLoad@@Base+0x24d9>
    8cde:	48 89 d7             	mov    rdi,rdx
    8ce1:	ff d0                	call   rax
    8ce3:	48 8d 05 8e 6b 00 00 	lea    rax,[rip+0x6b8e]        # f878 <RedisModule_GetApi@@Base>
    8cea:	48 8b 00             	mov    rax,QWORD PTR [rax]
    8ced:	48 8d 15 c4 6a 00 00 	lea    rdx,[rip+0x6ac4]        # f7b8 <RedisModule_DictCompare@@Base>
    8cf4:	48 89 d6             	mov    rsi,rdx
    8cf7:	48 8d 15 0f 3c 00 00 	lea    rdx,[rip+0x3c0f]        # c90d <RedisModule_OnLoad@@Base+0x24ee>
    8cfe:	48 89 d7             	mov    rdi,rdx
    8d01:	ff d0                	call   rax
    8d03:	48 8d 05 6e 6b 00 00 	lea    rax,[rip+0x6b6e]        # f878 <RedisModule_GetApi@@Base>
    8d0a:	48 8b 00             	mov    rax,QWORD PTR [rax]
    8d0d:	48 8d 15 1c 6c 00 00 	lea    rdx,[rip+0x6c1c]        # f930 <RedisModule_DictCompareC@@Base>
    8d14:	48 89 d6             	mov    rsi,rdx
    8d17:	48 8d 15 07 3c 00 00 	lea    rdx,[rip+0x3c07]        # c925 <RedisModule_OnLoad@@Base+0x2506>
    8d1e:	48 89 d7             	mov    rdi,rdx
    8d21:	ff d0                	call   rax
    8d23:	48 8d 05 4e 6b 00 00 	lea    rax,[rip+0x6b4e]        # f878 <RedisModule_GetApi@@Base>
    8d2a:	48 8b 00             	mov    rax,QWORD PTR [rax]
    8d2d:	48 8d 15 b4 6b 00 00 	lea    rdx,[rip+0x6bb4]        # f8e8 <RedisModule_RegisterInfoFunc@@Base>
    8d34:	48 89 d6             	mov    rsi,rdx
    8d37:	48 8d 15 00 3c 00 00 	lea    rdx,[rip+0x3c00]        # c93e <RedisModule_OnLoad@@Base+0x251f>
    8d3e:	48 89 d7             	mov    rdi,rdx
    8d41:	ff d0                	call   rax
    8d43:	48 8d 05 2e 6b 00 00 	lea    rax,[rip+0x6b2e]        # f878 <RedisModule_GetApi@@Base>
    8d4a:	48 8b 00             	mov    rax,QWORD PTR [rax]
    8d4d:	48 8d 15 24 68 00 00 	lea    rdx,[rip+0x6824]        # f578 <RedisModule_RegisterAuthCallback@@Base>
    8d54:	48 89 d6             	mov    rsi,rdx
    8d57:	48 8d 15 02 3c 00 00 	lea    rdx,[rip+0x3c02]        # c960 <RedisModule_OnLoad@@Base+0x2541>
    8d5e:	48 89 d7             	mov    rdi,rdx
    8d61:	ff d0                	call   rax
    8d63:	48 8d 05 0e 6b 00 00 	lea    rax,[rip+0x6b0e]        # f878 <RedisModule_GetApi@@Base>
    8d6a:	48 8b 00             	mov    rax,QWORD PTR [rax]
    8d6d:	48 8d 15 24 69 00 00 	lea    rdx,[rip+0x6924]        # f698 <RedisModule_InfoAddSection@@Base>
    8d74:	48 89 d6             	mov    rsi,rdx
    8d77:	48 8d 15 03 3c 00 00 	lea    rdx,[rip+0x3c03]        # c981 <RedisModule_OnLoad@@Base+0x2562>
    8d7e:	48 89 d7             	mov    rdi,rdx
    8d81:	ff d0                	call   rax
    8d83:	48 8d 05 ee 6a 00 00 	lea    rax,[rip+0x6aee]        # f878 <RedisModule_GetApi@@Base>
    8d8a:	48 8b 00             	mov    rax,QWORD PTR [rax]
    8d8d:	48 8d 15 9c 67 00 00 	lea    rdx,[rip+0x679c]        # f530 <RedisModule_InfoBeginDictField@@Base>
    8d94:	48 89 d6             	mov    rsi,rdx
    8d97:	48 8d 15 02 3c 00 00 	lea    rdx,[rip+0x3c02]        # c9a0 <RedisModule_OnLoad@@Base+0x2581>
    8d9e:	48 89 d7             	mov    rdi,rdx
    8da1:	ff d0                	call   rax
    8da3:	48 8d 05 ce 6a 00 00 	lea    rax,[rip+0x6ace]        # f878 <RedisModule_GetApi@@Base>
    8daa:	48 8b 00             	mov    rax,QWORD PTR [rax]
    8dad:	48 8d 15 64 6c 00 00 	lea    rdx,[rip+0x6c64]        # fa18 <RedisModule_InfoEndDictField@@Base>
    8db4:	48 89 d6             	mov    rsi,rdx
    8db7:	48 8d 15 01 3c 00 00 	lea    rdx,[rip+0x3c01]        # c9bf <RedisModule_OnLoad@@Base+0x25a0>
    8dbe:	48 89 d7             	mov    rdi,rdx
    8dc1:	ff d0                	call   rax
    8dc3:	48 8d 05 ae 6a 00 00 	lea    rax,[rip+0x6aae]        # f878 <RedisModule_GetApi@@Base>
    8dca:	48 8b 00             	mov    rax,QWORD PTR [rax]
    8dcd:	48 8d 15 54 6a 00 00 	lea    rdx,[rip+0x6a54]        # f828 <RedisModule_InfoAddFieldString@@Base>
    8dd4:	48 89 d6             	mov    rsi,rdx
    8dd7:	48 8d 15 02 3c 00 00 	lea    rdx,[rip+0x3c02]        # c9e0 <RedisModule_OnLoad@@Base+0x25c1>
    8dde:	48 89 d7             	mov    rdi,rdx
    8de1:	ff d0                	call   rax
    8de3:	48 8d 05 8e 6a 00 00 	lea    rax,[rip+0x6a8e]        # f878 <RedisModule_GetApi@@Base>
    8dea:	48 8b 00             	mov    rax,QWORD PTR [rax]
    8ded:	48 8d 15 ac 6a 00 00 	lea    rdx,[rip+0x6aac]        # f8a0 <RedisModule_InfoAddFieldCString@@Base>
    8df4:	48 89 d6             	mov    rsi,rdx
    8df7:	48 8d 15 02 3c 00 00 	lea    rdx,[rip+0x3c02]        # ca00 <RedisModule_OnLoad@@Base+0x25e1>
    8dfe:	48 89 d7             	mov    rdi,rdx
    8e01:	ff d0                	call   rax
    8e03:	48 8d 05 6e 6a 00 00 	lea    rax,[rip+0x6a6e]        # f878 <RedisModule_GetApi@@Base>
    8e0a:	48 8b 00             	mov    rax,QWORD PTR [rax]
    8e0d:	48 8d 15 dc 63 00 00 	lea    rdx,[rip+0x63dc]        # f1f0 <RedisModule_InfoAddFieldDouble@@Base>
    8e14:	48 89 d6             	mov    rsi,rdx
    8e17:	48 8d 15 02 3c 00 00 	lea    rdx,[rip+0x3c02]        # ca20 <RedisModule_OnLoad@@Base+0x2601>
    8e1e:	48 89 d7             	mov    rdi,rdx
    8e21:	ff d0                	call   rax
    8e23:	48 8d 05 4e 6a 00 00 	lea    rax,[rip+0x6a4e]        # f878 <RedisModule_GetApi@@Base>
    8e2a:	48 8b 00             	mov    rax,QWORD PTR [rax]
    8e2d:	48 8d 15 84 66 00 00 	lea    rdx,[rip+0x6684]        # f4b8 <RedisModule_InfoAddFieldLongLong@@Base>
    8e34:	48 89 d6             	mov    rsi,rdx
    8e37:	48 8d 15 02 3c 00 00 	lea    rdx,[rip+0x3c02]        # ca40 <RedisModule_OnLoad@@Base+0x2621>
    8e3e:	48 89 d7             	mov    rdi,rdx
    8e41:	ff d0                	call   rax
    8e43:	48 8d 05 2e 6a 00 00 	lea    rax,[rip+0x6a2e]        # f878 <RedisModule_GetApi@@Base>
    8e4a:	48 8b 00             	mov    rax,QWORD PTR [rax]
    8e4d:	48 8d 15 6c 6c 00 00 	lea    rdx,[rip+0x6c6c]        # fac0 <RedisModule_InfoAddFieldULongLong@@Base>
    8e54:	48 89 d6             	mov    rsi,rdx
    8e57:	48 8d 15 0a 3c 00 00 	lea    rdx,[rip+0x3c0a]        # ca68 <RedisModule_OnLoad@@Base+0x2649>
    8e5e:	48 89 d7             	mov    rdi,rdx
    8e61:	ff d0                	call   rax
    8e63:	48 8d 05 0e 6a 00 00 	lea    rax,[rip+0x6a0e]        # f878 <RedisModule_GetApi@@Base>
    8e6a:	48 8b 00             	mov    rax,QWORD PTR [rax]
    8e6d:	48 8d 15 3c 66 00 00 	lea    rdx,[rip+0x663c]        # f4b0 <RedisModule_GetServerInfo@@Base>
    8e74:	48 89 d6             	mov    rsi,rdx
    8e77:	48 8d 15 0c 3c 00 00 	lea    rdx,[rip+0x3c0c]        # ca8a <RedisModule_OnLoad@@Base+0x266b>
    8e7e:	48 89 d7             	mov    rdi,rdx
    8e81:	ff d0                	call   rax
    8e83:	48 8d 05 ee 69 00 00 	lea    rax,[rip+0x69ee]        # f878 <RedisModule_GetApi@@Base>
    8e8a:	48 8b 00             	mov    rax,QWORD PTR [rax]
    8e8d:	48 8d 15 94 65 00 00 	lea    rdx,[rip+0x6594]        # f428 <RedisModule_FreeServerInfo@@Base>
    8e94:	48 89 d6             	mov    rsi,rdx
    8e97:	48 8d 15 06 3c 00 00 	lea    rdx,[rip+0x3c06]        # caa4 <RedisModule_OnLoad@@Base+0x2685>
    8e9e:	48 89 d7             	mov    rdi,rdx
    8ea1:	ff d0                	call   rax
    8ea3:	48 8d 05 ce 69 00 00 	lea    rax,[rip+0x69ce]        # f878 <RedisModule_GetApi@@Base>
    8eaa:	48 8b 00             	mov    rax,QWORD PTR [rax]
    8ead:	48 8d 15 34 69 00 00 	lea    rdx,[rip+0x6934]        # f7e8 <RedisModule_ServerInfoGetField@@Base>
    8eb4:	48 89 d6             	mov    rsi,rdx
    8eb7:	48 8d 15 02 3c 00 00 	lea    rdx,[rip+0x3c02]        # cac0 <RedisModule_OnLoad@@Base+0x26a1>
    8ebe:	48 89 d7             	mov    rdi,rdx
    8ec1:	ff d0                	call   rax
    8ec3:	48 8d 05 ae 69 00 00 	lea    rax,[rip+0x69ae]        # f878 <RedisModule_GetApi@@Base>
    8eca:	48 8b 00             	mov    rax,QWORD PTR [rax]
    8ecd:	48 8d 15 34 68 00 00 	lea    rdx,[rip+0x6834]        # f708 <RedisModule_ServerInfoGetFieldC@@Base>
    8ed4:	48 89 d6             	mov    rsi,rdx
    8ed7:	48 8d 15 02 3c 00 00 	lea    rdx,[rip+0x3c02]        # cae0 <RedisModule_OnLoad@@Base+0x26c1>
    8ede:	48 89 d7             	mov    rdi,rdx
    8ee1:	ff d0                	call   rax
    8ee3:	48 8d 05 8e 69 00 00 	lea    rax,[rip+0x698e]        # f878 <RedisModule_GetApi@@Base>
    8eea:	48 8b 00             	mov    rax,QWORD PTR [rax]
    8eed:	48 8d 15 5c 64 00 00 	lea    rdx,[rip+0x645c]        # f350 <RedisModule_ServerInfoGetFieldSigned@@Base>
    8ef4:	48 89 d6             	mov    rsi,rdx
    8ef7:	48 8d 15 02 3c 00 00 	lea    rdx,[rip+0x3c02]        # cb00 <RedisModule_OnLoad@@Base+0x26e1>
    8efe:	48 89 d7             	mov    rdi,rdx
    8f01:	ff d0                	call   rax
    8f03:	48 8d 05 6e 69 00 00 	lea    rax,[rip+0x696e]        # f878 <RedisModule_GetApi@@Base>
    8f0a:	48 8b 00             	mov    rax,QWORD PTR [rax]
    8f0d:	48 8d 15 4c 62 00 00 	lea    rdx,[rip+0x624c]        # f160 <RedisModule_ServerInfoGetFieldUnsigned@@Base>
    8f14:	48 89 d6             	mov    rsi,rdx
    8f17:	48 8d 15 0a 3c 00 00 	lea    rdx,[rip+0x3c0a]        # cb28 <RedisModule_OnLoad@@Base+0x2709>
    8f1e:	48 89 d7             	mov    rdi,rdx
    8f21:	ff d0                	call   rax
    8f23:	48 8d 05 4e 69 00 00 	lea    rax,[rip+0x694e]        # f878 <RedisModule_GetApi@@Base>
    8f2a:	48 8b 00             	mov    rax,QWORD PTR [rax]
    8f2d:	48 8d 15 3c 63 00 00 	lea    rdx,[rip+0x633c]        # f270 <RedisModule_ServerInfoGetFieldDouble@@Base>
    8f34:	48 89 d6             	mov    rsi,rdx
    8f37:	48 8d 15 12 3c 00 00 	lea    rdx,[rip+0x3c12]        # cb50 <RedisModule_OnLoad@@Base+0x2731>
    8f3e:	48 89 d7             	mov    rdi,rdx
    8f41:	ff d0                	call   rax
    8f43:	48 8d 05 2e 69 00 00 	lea    rax,[rip+0x692e]        # f878 <RedisModule_GetApi@@Base>
    8f4a:	48 8b 00             	mov    rax,QWORD PTR [rax]
    8f4d:	48 8d 15 94 61 00 00 	lea    rdx,[rip+0x6194]        # f0e8 <RedisModule_GetClientInfoById@@Base>
    8f54:	48 89 d6             	mov    rsi,rdx
    8f57:	48 8d 15 17 3c 00 00 	lea    rdx,[rip+0x3c17]        # cb75 <RedisModule_OnLoad@@Base+0x2756>
    8f5e:	48 89 d7             	mov    rdi,rdx
    8f61:	ff d0                	call   rax
    8f63:	48 8d 05 0e 69 00 00 	lea    rax,[rip+0x690e]        # f878 <RedisModule_GetApi@@Base>
    8f6a:	48 8b 00             	mov    rax,QWORD PTR [rax]
    8f6d:	48 8d 15 4c 63 00 00 	lea    rdx,[rip+0x634c]        # f2c0 <RedisModule_GetClientNameById@@Base>
    8f74:	48 89 d6             	mov    rsi,rdx
    8f77:	48 8d 15 15 3c 00 00 	lea    rdx,[rip+0x3c15]        # cb93 <RedisModule_OnLoad@@Base+0x2774>
    8f7e:	48 89 d7             	mov    rdi,rdx
    8f81:	ff d0                	call   rax
    8f83:	48 8d 05 ee 68 00 00 	lea    rax,[rip+0x68ee]        # f878 <RedisModule_GetApi@@Base>
    8f8a:	48 8b 00             	mov    rax,QWORD PTR [rax]
    8f8d:	48 8d 15 ac 6a 00 00 	lea    rdx,[rip+0x6aac]        # fa40 <RedisModule_SetClientNameById@@Base>
    8f94:	48 89 d6             	mov    rsi,rdx
    8f97:	48 8d 15 13 3c 00 00 	lea    rdx,[rip+0x3c13]        # cbb1 <RedisModule_OnLoad@@Base+0x2792>
    8f9e:	48 89 d7             	mov    rdi,rdx
    8fa1:	ff d0                	call   rax
    8fa3:	48 8d 05 ce 68 00 00 	lea    rax,[rip+0x68ce]        # f878 <RedisModule_GetApi@@Base>
    8faa:	48 8b 00             	mov    rax,QWORD PTR [rax]
    8fad:	48 8d 15 cc 68 00 00 	lea    rdx,[rip+0x68cc]        # f880 <RedisModule_PublishMessage@@Base>
    8fb4:	48 89 d6             	mov    rsi,rdx
    8fb7:	48 8d 15 11 3c 00 00 	lea    rdx,[rip+0x3c11]        # cbcf <RedisModule_OnLoad@@Base+0x27b0>
    8fbe:	48 89 d7             	mov    rdi,rdx
    8fc1:	ff d0                	call   rax
    8fc3:	48 8d 05 ae 68 00 00 	lea    rax,[rip+0x68ae]        # f878 <RedisModule_GetApi@@Base>
    8fca:	48 8b 00             	mov    rax,QWORD PTR [rax]
    8fcd:	48 8d 15 ac 65 00 00 	lea    rdx,[rip+0x65ac]        # f580 <RedisModule_PublishMessageShard@@Base>
    8fd4:	48 89 d6             	mov    rsi,rdx
    8fd7:	48 8d 15 12 3c 00 00 	lea    rdx,[rip+0x3c12]        # cbf0 <RedisModule_OnLoad@@Base+0x27d1>
    8fde:	48 89 d7             	mov    rdi,rdx
    8fe1:	ff d0                	call   rax
    8fe3:	48 8d 05 8e 68 00 00 	lea    rax,[rip+0x688e]        # f878 <RedisModule_GetApi@@Base>
    8fea:	48 8b 00             	mov    rax,QWORD PTR [rax]
    8fed:	48 8d 15 54 61 00 00 	lea    rdx,[rip+0x6154]        # f148 <RedisModule_SubscribeToServerEvent@@Base>
    8ff4:	48 89 d6             	mov    rsi,rdx
    8ff7:	48 8d 15 12 3c 00 00 	lea    rdx,[rip+0x3c12]        # cc10 <RedisModule_OnLoad@@Base+0x27f1>
    8ffe:	48 89 d7             	mov    rdi,rdx
    9001:	ff d0                	call   rax
    9003:	48 8d 05 6e 68 00 00 	lea    rax,[rip+0x686e]        # f878 <RedisModule_GetApi@@Base>
    900a:	48 8b 00             	mov    rax,QWORD PTR [rax]
    900d:	48 8d 15 b4 64 00 00 	lea    rdx,[rip+0x64b4]        # f4c8 <RedisModule_SetLRU@@Base>
    9014:	48 89 d6             	mov    rsi,rdx
    9017:	48 8d 15 15 3c 00 00 	lea    rdx,[rip+0x3c15]        # cc33 <RedisModule_OnLoad@@Base+0x2814>
    901e:	48 89 d7             	mov    rdi,rdx
    9021:	ff d0                	call   rax
    9023:	48 8d 05 4e 68 00 00 	lea    rax,[rip+0x684e]        # f878 <RedisModule_GetApi@@Base>
    902a:	48 8b 00             	mov    rax,QWORD PTR [rax]
    902d:	48 8d 15 ac 60 00 00 	lea    rdx,[rip+0x60ac]        # f0e0 <RedisModule_GetLRU@@Base>
    9034:	48 89 d6             	mov    rsi,rdx
    9037:	48 8d 15 08 3c 00 00 	lea    rdx,[rip+0x3c08]        # cc46 <RedisModule_OnLoad@@Base+0x2827>
    903e:	48 89 d7             	mov    rdi,rdx
    9041:	ff d0                	call   rax
    9043:	48 8d 05 2e 68 00 00 	lea    rax,[rip+0x682e]        # f878 <RedisModule_GetApi@@Base>
    904a:	48 8b 00             	mov    rax,QWORD PTR [rax]
    904d:	48 8d 15 14 69 00 00 	lea    rdx,[rip+0x6914]        # f968 <RedisModule_SetLFU@@Base>
    9054:	48 89 d6             	mov    rsi,rdx
    9057:	48 8d 15 fb 3b 00 00 	lea    rdx,[rip+0x3bfb]        # cc59 <RedisModule_OnLoad@@Base+0x283a>
    905e:	48 89 d7             	mov    rdi,rdx
    9061:	ff d0                	call   rax
    9063:	48 8d 05 0e 68 00 00 	lea    rax,[rip+0x680e]        # f878 <RedisModule_GetApi@@Base>
    906a:	48 8b 00             	mov    rax,QWORD PTR [rax]
    906d:	48 8d 15 1c 65 00 00 	lea    rdx,[rip+0x651c]        # f590 <RedisModule_GetLFU@@Base>
    9074:	48 89 d6             	mov    rsi,rdx
    9077:	48 8d 15 ee 3b 00 00 	lea    rdx,[rip+0x3bee]        # cc6c <RedisModule_OnLoad@@Base+0x284d>
    907e:	48 89 d7             	mov    rdi,rdx
    9081:	ff d0                	call   rax
    9083:	48 8d 05 ee 67 00 00 	lea    rax,[rip+0x67ee]        # f878 <RedisModule_GetApi@@Base>
    908a:	48 8b 00             	mov    rax,QWORD PTR [rax]
    908d:	48 8d 15 b4 67 00 00 	lea    rdx,[rip+0x67b4]        # f848 <RedisModule_BlockClientOnKeys@@Base>
    9094:	48 89 d6             	mov    rsi,rdx
    9097:	48 8d 15 e1 3b 00 00 	lea    rdx,[rip+0x3be1]        # cc7f <RedisModule_OnLoad@@Base+0x2860>
    909e:	48 89 d7             	mov    rdi,rdx
    90a1:	ff d0                	call   rax
    90a3:	48 8d 05 ce 67 00 00 	lea    rax,[rip+0x67ce]        # f878 <RedisModule_GetApi@@Base>
    90aa:	48 8b 00             	mov    rax,QWORD PTR [rax]
    90ad:	48 8d 15 a4 67 00 00 	lea    rdx,[rip+0x67a4]        # f858 <RedisModule_BlockClientOnKeysWithFlags@@Base>
    90b4:	48 89 d6             	mov    rsi,rdx
    90b7:	48 8d 15 e2 3b 00 00 	lea    rdx,[rip+0x3be2]        # cca0 <RedisModule_OnLoad@@Base+0x2881>
    90be:	48 89 d7             	mov    rdi,rdx
    90c1:	ff d0                	call   rax
    90c3:	48 8d 05 ae 67 00 00 	lea    rax,[rip+0x67ae]        # f878 <RedisModule_GetApi@@Base>
    90ca:	48 8b 00             	mov    rax,QWORD PTR [rax]
    90cd:	48 8d 15 2c 61 00 00 	lea    rdx,[rip+0x612c]        # f200 <RedisModule_SignalKeyAsReady@@Base>
    90d4:	48 89 d6             	mov    rsi,rdx
    90d7:	48 8d 15 e9 3b 00 00 	lea    rdx,[rip+0x3be9]        # ccc7 <RedisModule_OnLoad@@Base+0x28a8>
    90de:	48 89 d7             	mov    rdi,rdx
    90e1:	ff d0                	call   rax
    90e3:	48 8d 05 8e 67 00 00 	lea    rax,[rip+0x678e]        # f878 <RedisModule_GetApi@@Base>
    90ea:	48 8b 00             	mov    rax,QWORD PTR [rax]
    90ed:	48 8d 15 9c 60 00 00 	lea    rdx,[rip+0x609c]        # f190 <RedisModule_GetBlockedClientReadyKey@@Base>
    90f4:	48 89 d6             	mov    rsi,rdx
    90f7:	48 8d 15 ea 3b 00 00 	lea    rdx,[rip+0x3bea]        # cce8 <RedisModule_OnLoad@@Base+0x28c9>
    90fe:	48 89 d7             	mov    rdi,rdx
    9101:	ff d0                	call   rax
    9103:	48 8d 05 6e 67 00 00 	lea    rax,[rip+0x676e]        # f878 <RedisModule_GetApi@@Base>
    910a:	48 8b 00             	mov    rax,QWORD PTR [rax]
    910d:	48 8d 15 94 64 00 00 	lea    rdx,[rip+0x6494]        # f5a8 <RedisModule_ScanCursorCreate@@Base>
    9114:	48 89 d6             	mov    rsi,rdx
    9117:	48 8d 15 ef 3b 00 00 	lea    rdx,[rip+0x3bef]        # cd0d <RedisModule_OnLoad@@Base+0x28ee>
    911e:	48 89 d7             	mov    rdi,rdx
    9121:	ff d0                	call   rax
    9123:	48 8d 05 4e 67 00 00 	lea    rax,[rip+0x674e]        # f878 <RedisModule_GetApi@@Base>
    912a:	48 8b 00             	mov    rax,QWORD PTR [rax]
    912d:	48 8d 15 54 64 00 00 	lea    rdx,[rip+0x6454]        # f588 <RedisModule_ScanCursorRestart@@Base>
    9134:	48 89 d6             	mov    rsi,rdx
    9137:	48 8d 15 ec 3b 00 00 	lea    rdx,[rip+0x3bec]        # cd2a <RedisModule_OnLoad@@Base+0x290b>
    913e:	48 89 d7             	mov    rdi,rdx
    9141:	ff d0                	call   rax
    9143:	48 8d 05 2e 67 00 00 	lea    rax,[rip+0x672e]        # f878 <RedisModule_GetApi@@Base>
    914a:	48 8b 00             	mov    rax,QWORD PTR [rax]
    914d:	48 8d 15 bc 65 00 00 	lea    rdx,[rip+0x65bc]        # f710 <RedisModule_ScanCursorDestroy@@Base>
    9154:	48 89 d6             	mov    rsi,rdx
    9157:	48 8d 15 ea 3b 00 00 	lea    rdx,[rip+0x3bea]        # cd48 <RedisModule_OnLoad@@Base+0x2929>
    915e:	48 89 d7             	mov    rdi,rdx
    9161:	ff d0                	call   rax
    9163:	48 8d 05 0e 67 00 00 	lea    rax,[rip+0x670e]        # f878 <RedisModule_GetApi@@Base>
    916a:	48 8b 00             	mov    rax,QWORD PTR [rax]
    916d:	48 8d 15 2c 60 00 00 	lea    rdx,[rip+0x602c]        # f1a0 <RedisModule_Scan@@Base>
    9174:	48 89 d6             	mov    rsi,rdx
    9177:	48 8d 15 e8 3b 00 00 	lea    rdx,[rip+0x3be8]        # cd66 <RedisModule_OnLoad@@Base+0x2947>
    917e:	48 89 d7             	mov    rdi,rdx
    9181:	ff d0                	call   rax
    9183:	48 8d 05 ee 66 00 00 	lea    rax,[rip+0x66ee]        # f878 <RedisModule_GetApi@@Base>
    918a:	48 8b 00             	mov    rax,QWORD PTR [rax]
    918d:	48 8d 15 04 66 00 00 	lea    rdx,[rip+0x6604]        # f798 <RedisModule_ScanKey@@Base>
    9194:	48 89 d6             	mov    rsi,rdx
    9197:	48 8d 15 d9 3b 00 00 	lea    rdx,[rip+0x3bd9]        # cd77 <RedisModule_OnLoad@@Base+0x2958>
    919e:	48 89 d7             	mov    rdi,rdx
    91a1:	ff d0                	call   rax
    91a3:	48 8d 05 ce 66 00 00 	lea    rax,[rip+0x66ce]        # f878 <RedisModule_GetApi@@Base>
    91aa:	48 8b 00             	mov    rax,QWORD PTR [rax]
    91ad:	48 8d 15 74 69 00 00 	lea    rdx,[rip+0x6974]        # fb28 <RedisModule_GetContextFlagsAll@@Base>
    91b4:	48 89 d6             	mov    rsi,rdx
    91b7:	48 8d 15 d2 3b 00 00 	lea    rdx,[rip+0x3bd2]        # cd90 <RedisModule_OnLoad@@Base+0x2971>
    91be:	48 89 d7             	mov    rdi,rdx
    91c1:	ff d0                	call   rax
    91c3:	48 8d 05 ae 66 00 00 	lea    rax,[rip+0x66ae]        # f878 <RedisModule_GetApi@@Base>
    91ca:	48 8b 00             	mov    rax,QWORD PTR [rax]
    91cd:	48 8d 15 ac 68 00 00 	lea    rdx,[rip+0x68ac]        # fa80 <RedisModule_GetModuleOptionsAll@@Base>
    91d4:	48 89 d6             	mov    rsi,rdx
    91d7:	48 8d 15 d2 3b 00 00 	lea    rdx,[rip+0x3bd2]        # cdb0 <RedisModule_OnLoad@@Base+0x2991>
    91de:	48 89 d7             	mov    rdi,rdx
    91e1:	ff d0                	call   rax
    91e3:	48 8d 05 8e 66 00 00 	lea    rax,[rip+0x668e]        # f878 <RedisModule_GetApi@@Base>
    91ea:	48 8b 00             	mov    rax,QWORD PTR [rax]
    91ed:	48 8d 15 ac 61 00 00 	lea    rdx,[rip+0x61ac]        # f3a0 <RedisModule_GetKeyspaceNotificationFlagsAll@@Base>
    91f4:	48 89 d6             	mov    rsi,rdx
    91f7:	48 8d 15 d2 3b 00 00 	lea    rdx,[rip+0x3bd2]        # cdd0 <RedisModule_OnLoad@@Base+0x29b1>
    91fe:	48 89 d7             	mov    rdi,rdx
    9201:	ff d0                	call   rax
    9203:	48 8d 05 6e 66 00 00 	lea    rax,[rip+0x666e]        # f878 <RedisModule_GetApi@@Base>
    920a:	48 8b 00             	mov    rax,QWORD PTR [rax]
    920d:	48 8d 15 7c 69 00 00 	lea    rdx,[rip+0x697c]        # fb90 <RedisModule_IsSubEventSupported@@Base>
    9214:	48 89 d6             	mov    rsi,rdx
    9217:	48 8d 15 e2 3b 00 00 	lea    rdx,[rip+0x3be2]        # ce00 <RedisModule_OnLoad@@Base+0x29e1>
    921e:	48 89 d7             	mov    rdi,rdx
    9221:	ff d0                	call   rax
    9223:	48 8d 05 4e 66 00 00 	lea    rax,[rip+0x664e]        # f878 <RedisModule_GetApi@@Base>
    922a:	48 8b 00             	mov    rax,QWORD PTR [rax]
    922d:	48 8d 15 2c 60 00 00 	lea    rdx,[rip+0x602c]        # f260 <RedisModule_GetServerVersion@@Base>
    9234:	48 89 d6             	mov    rsi,rdx
    9237:	48 8d 15 e2 3b 00 00 	lea    rdx,[rip+0x3be2]        # ce20 <RedisModule_OnLoad@@Base+0x2a01>
    923e:	48 89 d7             	mov    rdi,rdx
    9241:	ff d0                	call   rax
    9243:	48 8d 05 2e 66 00 00 	lea    rax,[rip+0x662e]        # f878 <RedisModule_GetApi@@Base>
    924a:	48 8b 00             	mov    rax,QWORD PTR [rax]
    924d:	48 8d 15 ac 60 00 00 	lea    rdx,[rip+0x60ac]        # f300 <RedisModule_GetTypeMethodVersion@@Base>
    9254:	48 89 d6             	mov    rsi,rdx
    9257:	48 8d 15 e2 3b 00 00 	lea    rdx,[rip+0x3be2]        # ce40 <RedisModule_OnLoad@@Base+0x2a21>
    925e:	48 89 d7             	mov    rdi,rdx
    9261:	ff d0                	call   rax
    9263:	48 8d 05 0e 66 00 00 	lea    rax,[rip+0x660e]        # f878 <RedisModule_GetApi@@Base>
    926a:	48 8b 00             	mov    rax,QWORD PTR [rax]
    926d:	48 8d 15 ac 5f 00 00 	lea    rdx,[rip+0x5fac]        # f220 <RedisModule_Yield@@Base>
    9274:	48 89 d6             	mov    rsi,rdx
    9277:	48 8d 15 e3 3b 00 00 	lea    rdx,[rip+0x3be3]        # ce61 <RedisModule_OnLoad@@Base+0x2a42>
    927e:	48 89 d7             	mov    rdi,rdx
    9281:	ff d0                	call   rax
    9283:	48 8d 05 ee 65 00 00 	lea    rax,[rip+0x65ee]        # f878 <RedisModule_GetApi@@Base>
    928a:	48 8b 00             	mov    rax,QWORD PTR [rax]
    928d:	48 8d 15 24 5e 00 00 	lea    rdx,[rip+0x5e24]        # f0b8 <RedisModule_GetThreadSafeContext@@Base>
    9294:	48 89 d6             	mov    rsi,rdx
    9297:	48 8d 15 da 3b 00 00 	lea    rdx,[rip+0x3bda]        # ce78 <RedisModule_OnLoad@@Base+0x2a59>
    929e:	48 89 d7             	mov    rdi,rdx
    92a1:	ff d0                	call   rax
    92a3:	48 8d 05 ce 65 00 00 	lea    rax,[rip+0x65ce]        # f878 <RedisModule_GetApi@@Base>
    92aa:	48 8b 00             	mov    rax,QWORD PTR [rax]
    92ad:	48 8d 15 44 5f 00 00 	lea    rdx,[rip+0x5f44]        # f1f8 <RedisModule_GetDetachedThreadSafeContext@@Base>
    92b4:	48 89 d6             	mov    rsi,rdx
    92b7:	48 8d 15 e2 3b 00 00 	lea    rdx,[rip+0x3be2]        # cea0 <RedisModule_OnLoad@@Base+0x2a81>
    92be:	48 89 d7             	mov    rdi,rdx
    92c1:	ff d0                	call   rax
    92c3:	48 8d 05 ae 65 00 00 	lea    rax,[rip+0x65ae]        # f878 <RedisModule_GetApi@@Base>
    92ca:	48 8b 00             	mov    rax,QWORD PTR [rax]
    92cd:	48 8d 15 6c 61 00 00 	lea    rdx,[rip+0x616c]        # f440 <RedisModule_FreeThreadSafeContext@@Base>
    92d4:	48 89 d6             	mov    rsi,rdx
    92d7:	48 8d 15 f2 3b 00 00 	lea    rdx,[rip+0x3bf2]        # ced0 <RedisModule_OnLoad@@Base+0x2ab1>
    92de:	48 89 d7             	mov    rdi,rdx
    92e1:	ff d0                	call   rax
    92e3:	48 8d 05 8e 65 00 00 	lea    rax,[rip+0x658e]        # f878 <RedisModule_GetApi@@Base>
    92ea:	48 8b 00             	mov    rax,QWORD PTR [rax]
    92ed:	48 8d 15 cc 61 00 00 	lea    rdx,[rip+0x61cc]        # f4c0 <RedisModule_ThreadSafeContextLock@@Base>
    92f4:	48 89 d6             	mov    rsi,rdx
    92f7:	48 8d 15 fa 3b 00 00 	lea    rdx,[rip+0x3bfa]        # cef8 <RedisModule_OnLoad@@Base+0x2ad9>
    92fe:	48 89 d7             	mov    rdi,rdx
    9301:	ff d0                	call   rax
    9303:	48 8d 05 6e 65 00 00 	lea    rax,[rip+0x656e]        # f878 <RedisModule_GetApi@@Base>
    930a:	48 8b 00             	mov    rax,QWORD PTR [rax]
    930d:	48 8d 15 fc 66 00 00 	lea    rdx,[rip+0x66fc]        # fa10 <RedisModule_ThreadSafeContextTryLock@@Base>
    9314:	48 89 d6             	mov    rsi,rdx
    9317:	48 8d 15 02 3c 00 00 	lea    rdx,[rip+0x3c02]        # cf20 <RedisModule_OnLoad@@Base+0x2b01>
    931e:	48 89 d7             	mov    rdi,rdx
    9321:	ff d0                	call   rax
    9323:	48 8d 05 4e 65 00 00 	lea    rax,[rip+0x654e]        # f878 <RedisModule_GetApi@@Base>
    932a:	48 8b 00             	mov    rax,QWORD PTR [rax]
    932d:	48 8d 15 7c 66 00 00 	lea    rdx,[rip+0x667c]        # f9b0 <RedisModule_ThreadSafeContextUnlock@@Base>
    9334:	48 89 d6             	mov    rsi,rdx
    9337:	48 8d 15 0a 3c 00 00 	lea    rdx,[rip+0x3c0a]        # cf48 <RedisModule_OnLoad@@Base+0x2b29>
    933e:	48 89 d7             	mov    rdi,rdx
    9341:	ff d0                	call   rax
    9343:	48 8d 05 2e 65 00 00 	lea    rax,[rip+0x652e]        # f878 <RedisModule_GetApi@@Base>
    934a:	48 8b 00             	mov    rax,QWORD PTR [rax]
    934d:	48 8d 15 54 5f 00 00 	lea    rdx,[rip+0x5f54]        # f2a8 <RedisModule_BlockClient@@Base>
    9354:	48 89 d6             	mov    rsi,rdx
    9357:	48 8d 15 0e 3c 00 00 	lea    rdx,[rip+0x3c0e]        # cf6c <RedisModule_OnLoad@@Base+0x2b4d>
    935e:	48 89 d7             	mov    rdi,rdx
    9361:	ff d0                	call   rax
    9363:	48 8d 05 0e 65 00 00 	lea    rax,[rip+0x650e]        # f878 <RedisModule_GetApi@@Base>
    936a:	48 8b 00             	mov    rax,QWORD PTR [rax]
    936d:	48 8d 15 e4 61 00 00 	lea    rdx,[rip+0x61e4]        # f558 <RedisModule_BlockClientGetPrivateData@@Base>
    9374:	48 89 d6             	mov    rsi,rdx
    9377:	48 8d 15 0a 3c 00 00 	lea    rdx,[rip+0x3c0a]        # cf88 <RedisModule_OnLoad@@Base+0x2b69>
    937e:	48 89 d7             	mov    rdi,rdx
    9381:	ff d0                	call   rax
    9383:	48 8d 05 ee 64 00 00 	lea    rax,[rip+0x64ee]        # f878 <RedisModule_GetApi@@Base>
    938a:	48 8b 00             	mov    rax,QWORD PTR [rax]
    938d:	48 8d 15 04 68 00 00 	lea    rdx,[rip+0x6804]        # fb98 <RedisModule_BlockClientSetPrivateData@@Base>
    9394:	48 89 d6             	mov    rsi,rdx
    9397:	48 8d 15 12 3c 00 00 	lea    rdx,[rip+0x3c12]        # cfb0 <RedisModule_OnLoad@@Base+0x2b91>
    939e:	48 89 d7             	mov    rdi,rdx
    93a1:	ff d0                	call   rax
    93a3:	48 8d 05 ce 64 00 00 	lea    rax,[rip+0x64ce]        # f878 <RedisModule_GetApi@@Base>
    93aa:	48 8b 00             	mov    rax,QWORD PTR [rax]
    93ad:	48 8d 15 cc 65 00 00 	lea    rdx,[rip+0x65cc]        # f980 <RedisModule_BlockClientOnAuth@@Base>
    93b4:	48 89 d6             	mov    rsi,rdx
    93b7:	48 8d 15 18 3c 00 00 	lea    rdx,[rip+0x3c18]        # cfd6 <RedisModule_OnLoad@@Base+0x2bb7>
    93be:	48 89 d7             	mov    rdi,rdx
    93c1:	ff d0                	call   rax
    93c3:	48 8d 05 ae 64 00 00 	lea    rax,[rip+0x64ae]        # f878 <RedisModule_GetApi@@Base>
    93ca:	48 8b 00             	mov    rax,QWORD PTR [rax]
    93cd:	48 8d 15 64 64 00 00 	lea    rdx,[rip+0x6464]        # f838 <RedisModule_UnblockClient@@Base>
    93d4:	48 89 d6             	mov    rsi,rdx
    93d7:	48 8d 15 16 3c 00 00 	lea    rdx,[rip+0x3c16]        # cff4 <RedisModule_OnLoad@@Base+0x2bd5>
    93de:	48 89 d7             	mov    rdi,rdx
    93e1:	ff d0                	call   rax
    93e3:	48 8d 05 8e 64 00 00 	lea    rax,[rip+0x648e]        # f878 <RedisModule_GetApi@@Base>
    93ea:	48 8b 00             	mov    rax,QWORD PTR [rax]
    93ed:	48 8d 15 24 67 00 00 	lea    rdx,[rip+0x6724]        # fb18 <RedisModule_IsBlockedReplyRequest@@Base>
    93f4:	48 89 d6             	mov    rsi,rdx
    93f7:	48 8d 15 12 3c 00 00 	lea    rdx,[rip+0x3c12]        # d010 <RedisModule_OnLoad@@Base+0x2bf1>
    93fe:	48 89 d7             	mov    rdi,rdx
    9401:	ff d0                	call   rax
    9403:	48 8d 05 6e 64 00 00 	lea    rax,[rip+0x646e]        # f878 <RedisModule_GetApi@@Base>
    940a:	48 8b 00             	mov    rax,QWORD PTR [rax]
    940d:	48 8d 15 ec 60 00 00 	lea    rdx,[rip+0x60ec]        # f500 <RedisModule_IsBlockedTimeoutRequest@@Base>
    9414:	48 89 d6             	mov    rsi,rdx
    9417:	48 8d 15 1a 3c 00 00 	lea    rdx,[rip+0x3c1a]        # d038 <RedisModule_OnLoad@@Base+0x2c19>
    941e:	48 89 d7             	mov    rdi,rdx
    9421:	ff d0                	call   rax
    9423:	48 8d 05 4e 64 00 00 	lea    rax,[rip+0x644e]        # f878 <RedisModule_GetApi@@Base>
    942a:	48 8b 00             	mov    rax,QWORD PTR [rax]
    942d:	48 8d 15 f4 62 00 00 	lea    rdx,[rip+0x62f4]        # f728 <RedisModule_GetBlockedClientPrivateData@@Base>
    9434:	48 89 d6             	mov    rsi,rdx
    9437:	48 8d 15 22 3c 00 00 	lea    rdx,[rip+0x3c22]        # d060 <RedisModule_OnLoad@@Base+0x2c41>
    943e:	48 89 d7             	mov    rdi,rdx
    9441:	ff d0                	call   rax
    9443:	48 8d 05 2e 64 00 00 	lea    rax,[rip+0x642e]        # f878 <RedisModule_GetApi@@Base>
    944a:	48 8b 00             	mov    rax,QWORD PTR [rax]
    944d:	48 8d 15 44 61 00 00 	lea    rdx,[rip+0x6144]        # f598 <RedisModule_GetBlockedClientHandle@@Base>
    9454:	48 89 d6             	mov    rsi,rdx
    9457:	48 8d 15 2a 3c 00 00 	lea    rdx,[rip+0x3c2a]        # d088 <RedisModule_OnLoad@@Base+0x2c69>
    945e:	48 89 d7             	mov    rdi,rdx
    9461:	ff d0                	call   rax
    9463:	48 8d 05 0e 64 00 00 	lea    rax,[rip+0x640e]        # f878 <RedisModule_GetApi@@Base>
    946a:	48 8b 00             	mov    rax,QWORD PTR [rax]
    946d:	48 8d 15 e4 64 00 00 	lea    rdx,[rip+0x64e4]        # f958 <RedisModule_AbortBlock@@Base>
    9474:	48 89 d6             	mov    rsi,rdx
    9477:	48 8d 15 2d 3c 00 00 	lea    rdx,[rip+0x3c2d]        # d0ab <RedisModule_OnLoad@@Base+0x2c8c>
    947e:	48 89 d7             	mov    rdi,rdx
    9481:	ff d0                	call   rax
    9483:	48 8d 05 ee 63 00 00 	lea    rax,[rip+0x63ee]        # f878 <RedisModule_GetApi@@Base>
    948a:	48 8b 00             	mov    rax,QWORD PTR [rax]
    948d:	48 8d 15 4c 62 00 00 	lea    rdx,[rip+0x624c]        # f6e0 <RedisModule_BlockedClientMeasureTimeStart@@Base>
    9494:	48 89 d6             	mov    rsi,rdx
    9497:	48 8d 15 2a 3c 00 00 	lea    rdx,[rip+0x3c2a]        # d0c8 <RedisModule_OnLoad@@Base+0x2ca9>
    949e:	48 89 d7             	mov    rdi,rdx
    94a1:	ff d0                	call   rax
    94a3:	48 8d 05 ce 63 00 00 	lea    rax,[rip+0x63ce]        # f878 <RedisModule_GetApi@@Base>
    94aa:	48 8b 00             	mov    rax,QWORD PTR [rax]
    94ad:	48 8d 15 5c 5c 00 00 	lea    rdx,[rip+0x5c5c]        # f110 <RedisModule_BlockedClientMeasureTimeEnd@@Base>
    94b4:	48 89 d6             	mov    rsi,rdx
    94b7:	48 8d 15 3a 3c 00 00 	lea    rdx,[rip+0x3c3a]        # d0f8 <RedisModule_OnLoad@@Base+0x2cd9>
    94be:	48 89 d7             	mov    rdi,rdx
    94c1:	ff d0                	call   rax
    94c3:	48 8d 05 ae 63 00 00 	lea    rax,[rip+0x63ae]        # f878 <RedisModule_GetApi@@Base>
    94ca:	48 8b 00             	mov    rax,QWORD PTR [rax]
    94cd:	48 8d 15 a4 61 00 00 	lea    rdx,[rip+0x61a4]        # f678 <RedisModule_SetDisconnectCallback@@Base>
    94d4:	48 89 d6             	mov    rsi,rdx
    94d7:	48 8d 15 42 3c 00 00 	lea    rdx,[rip+0x3c42]        # d120 <RedisModule_OnLoad@@Base+0x2d01>
    94de:	48 89 d7             	mov    rdi,rdx
    94e1:	ff d0                	call   rax
    94e3:	48 8d 05 8e 63 00 00 	lea    rax,[rip+0x638e]        # f878 <RedisModule_GetApi@@Base>
    94ea:	48 8b 00             	mov    rax,QWORD PTR [rax]
    94ed:	48 8d 15 2c 5c 00 00 	lea    rdx,[rip+0x5c2c]        # f120 <RedisModule_SubscribeToKeyspaceEvents@@Base>
    94f4:	48 89 d6             	mov    rsi,rdx
    94f7:	48 8d 15 4a 3c 00 00 	lea    rdx,[rip+0x3c4a]        # d148 <RedisModule_OnLoad@@Base+0x2d29>
    94fe:	48 89 d7             	mov    rdi,rdx
    9501:	ff d0                	call   rax
    9503:	48 8d 05 6e 63 00 00 	lea    rax,[rip+0x636e]        # f878 <RedisModule_GetApi@@Base>
    950a:	48 8b 00             	mov    rax,QWORD PTR [rax]
    950d:	48 8d 15 ec 5b 00 00 	lea    rdx,[rip+0x5bec]        # f100 <RedisModule_AddPostNotificationJob@@Base>
    9514:	48 89 d6             	mov    rsi,rdx
    9517:	48 8d 15 52 3c 00 00 	lea    rdx,[rip+0x3c52]        # d170 <RedisModule_OnLoad@@Base+0x2d51>
    951e:	48 89 d7             	mov    rdi,rdx
    9521:	ff d0                	call   rax
    9523:	48 8d 05 4e 63 00 00 	lea    rax,[rip+0x634e]        # f878 <RedisModule_GetApi@@Base>
    952a:	48 8b 00             	mov    rax,QWORD PTR [rax]
    952d:	48 8d 15 7c 60 00 00 	lea    rdx,[rip+0x607c]        # f5b0 <RedisModule_NotifyKeyspaceEvent@@Base>
    9534:	48 89 d6             	mov    rsi,rdx
    9537:	48 8d 15 5a 3c 00 00 	lea    rdx,[rip+0x3c5a]        # d198 <RedisModule_OnLoad@@Base+0x2d79>
    953e:	48 89 d7             	mov    rdi,rdx
    9541:	ff d0                	call   rax
    9543:	48 8d 05 2e 63 00 00 	lea    rax,[rip+0x632e]        # f878 <RedisModule_GetApi@@Base>
    954a:	48 8b 00             	mov    rax,QWORD PTR [rax]
    954d:	48 8d 15 1c 5c 00 00 	lea    rdx,[rip+0x5c1c]        # f170 <RedisModule_GetNotifyKeyspaceEvents@@Base>
    9554:	48 89 d6             	mov    rsi,rdx
    9557:	48 8d 15 5a 3c 00 00 	lea    rdx,[rip+0x3c5a]        # d1b8 <RedisModule_OnLoad@@Base+0x2d99>
    955e:	48 89 d7             	mov    rdi,rdx
    9561:	ff d0                	call   rax
    9563:	48 8d 05 0e 63 00 00 	lea    rax,[rip+0x630e]        # f878 <RedisModule_GetApi@@Base>
    956a:	48 8b 00             	mov    rax,QWORD PTR [rax]
    956d:	48 8d 15 ac 5f 00 00 	lea    rdx,[rip+0x5fac]        # f520 <RedisModule_BlockedClientDisconnected@@Base>
    9574:	48 89 d6             	mov    rsi,rdx
    9577:	48 8d 15 62 3c 00 00 	lea    rdx,[rip+0x3c62]        # d1e0 <RedisModule_OnLoad@@Base+0x2dc1>
    957e:	48 89 d7             	mov    rdi,rdx
    9581:	ff d0                	call   rax
    9583:	48 8d 05 ee 62 00 00 	lea    rax,[rip+0x62ee]        # f878 <RedisModule_GetApi@@Base>
    958a:	48 8b 00             	mov    rax,QWORD PTR [rax]
    958d:	48 8d 15 5c 64 00 00 	lea    rdx,[rip+0x645c]        # f9f0 <RedisModule_RegisterClusterMessageReceiver@@Base>
    9594:	48 89 d6             	mov    rsi,rdx
    9597:	48 8d 15 6a 3c 00 00 	lea    rdx,[rip+0x3c6a]        # d208 <RedisModule_OnLoad@@Base+0x2de9>
    959e:	48 89 d7             	mov    rdi,rdx
    95a1:	ff d0                	call   rax
    95a3:	48 8d 05 ce 62 00 00 	lea    rax,[rip+0x62ce]        # f878 <RedisModule_GetApi@@Base>
    95aa:	48 8b 00             	mov    rax,QWORD PTR [rax]
    95ad:	48 8d 15 8c 5b 00 00 	lea    rdx,[rip+0x5b8c]        # f140 <RedisModule_SendClusterMessage@@Base>
    95b4:	48 89 d6             	mov    rsi,rdx
    95b7:	48 8d 15 7a 3c 00 00 	lea    rdx,[rip+0x3c7a]        # d238 <RedisModule_OnLoad@@Base+0x2e19>
    95be:	48 89 d7             	mov    rdi,rdx
    95c1:	ff d0                	call   rax
    95c3:	48 8d 05 ae 62 00 00 	lea    rax,[rip+0x62ae]        # f878 <RedisModule_GetApi@@Base>
    95ca:	48 8b 00             	mov    rax,QWORD PTR [rax]
    95cd:	48 8d 15 2c 62 00 00 	lea    rdx,[rip+0x622c]        # f800 <RedisModule_GetClusterNodeInfo@@Base>
    95d4:	48 89 d6             	mov    rsi,rdx
    95d7:	48 8d 15 7a 3c 00 00 	lea    rdx,[rip+0x3c7a]        # d258 <RedisModule_OnLoad@@Base+0x2e39>
    95de:	48 89 d7             	mov    rdi,rdx
    95e1:	ff d0                	call   rax
    95e3:	48 8d 05 8e 62 00 00 	lea    rax,[rip+0x628e]        # f878 <RedisModule_GetApi@@Base>
    95ea:	48 8b 00             	mov    rax,QWORD PTR [rax]
    95ed:	48 8d 15 34 64 00 00 	lea    rdx,[rip+0x6434]        # fa28 <RedisModule_GetClusterNodesList@@Base>
    95f4:	48 89 d6             	mov    rsi,rdx
    95f7:	48 8d 15 7a 3c 00 00 	lea    rdx,[rip+0x3c7a]        # d278 <RedisModule_OnLoad@@Base+0x2e59>
    95fe:	48 89 d7             	mov    rdi,rdx
    9601:	ff d0                	call   rax
    9603:	48 8d 05 6e 62 00 00 	lea    rax,[rip+0x626e]        # f878 <RedisModule_GetApi@@Base>
    960a:	48 8b 00             	mov    rax,QWORD PTR [rax]
    960d:	48 8d 15 f4 5b 00 00 	lea    rdx,[rip+0x5bf4]        # f208 <RedisModule_FreeClusterNodesList@@Base>
    9614:	48 89 d6             	mov    rsi,rdx
    9617:	48 8d 15 7a 3c 00 00 	lea    rdx,[rip+0x3c7a]        # d298 <RedisModule_OnLoad@@Base+0x2e79>
    961e:	48 89 d7             	mov    rdi,rdx
    9621:	ff d0                	call   rax
    9623:	48 8d 05 4e 62 00 00 	lea    rax,[rip+0x624e]        # f878 <RedisModule_GetApi@@Base>
    962a:	48 8b 00             	mov    rax,QWORD PTR [rax]
    962d:	48 8d 15 1c 62 00 00 	lea    rdx,[rip+0x621c]        # f850 <RedisModule_CreateTimer@@Base>
    9634:	48 89 d6             	mov    rsi,rdx
    9637:	48 8d 15 7b 3c 00 00 	lea    rdx,[rip+0x3c7b]        # d2b9 <RedisModule_OnLoad@@Base+0x2e9a>
    963e:	48 89 d7             	mov    rdi,rdx
    9641:	ff d0                	call   rax
    9643:	48 8d 05 2e 62 00 00 	lea    rax,[rip+0x622e]        # f878 <RedisModule_GetApi@@Base>
    964a:	48 8b 00             	mov    rax,QWORD PTR [rax]
    964d:	48 8d 15 14 61 00 00 	lea    rdx,[rip+0x6114]        # f768 <RedisModule_StopTimer@@Base>
    9654:	48 89 d6             	mov    rsi,rdx
    9657:	48 8d 15 73 3c 00 00 	lea    rdx,[rip+0x3c73]        # d2d1 <RedisModule_OnLoad@@Base+0x2eb2>
    965e:	48 89 d7             	mov    rdi,rdx
    9661:	ff d0                	call   rax
    9663:	48 8d 05 0e 62 00 00 	lea    rax,[rip+0x620e]        # f878 <RedisModule_GetApi@@Base>
    966a:	48 8b 00             	mov    rax,QWORD PTR [rax]
    966d:	48 8d 15 8c 64 00 00 	lea    rdx,[rip+0x648c]        # fb00 <RedisModule_GetTimerInfo@@Base>
    9674:	48 89 d6             	mov    rsi,rdx
    9677:	48 8d 15 69 3c 00 00 	lea    rdx,[rip+0x3c69]        # d2e7 <RedisModule_OnLoad@@Base+0x2ec8>
    967e:	48 89 d7             	mov    rdi,rdx
    9681:	ff d0                	call   rax
    9683:	48 8d 05 ee 61 00 00 	lea    rax,[rip+0x61ee]        # f878 <RedisModule_GetApi@@Base>
    968a:	48 8b 00             	mov    rax,QWORD PTR [rax]
    968d:	48 8d 15 94 5b 00 00 	lea    rdx,[rip+0x5b94]        # f228 <RedisModule_GetMyClusterID@@Base>
    9694:	48 89 d6             	mov    rsi,rdx
    9697:	48 8d 15 62 3c 00 00 	lea    rdx,[rip+0x3c62]        # d300 <RedisModule_OnLoad@@Base+0x2ee1>
    969e:	48 89 d7             	mov    rdi,rdx
    96a1:	ff d0                	call   rax
    96a3:	48 8d 05 ce 61 00 00 	lea    rax,[rip+0x61ce]        # f878 <RedisModule_GetApi@@Base>
    96aa:	48 8b 00             	mov    rax,QWORD PTR [rax]
    96ad:	48 8d 15 f4 63 00 00 	lea    rdx,[rip+0x63f4]        # faa8 <RedisModule_GetClusterSize@@Base>
    96b4:	48 89 d6             	mov    rsi,rdx
    96b7:	48 8d 15 5d 3c 00 00 	lea    rdx,[rip+0x3c5d]        # d31b <RedisModule_OnLoad@@Base+0x2efc>
    96be:	48 89 d7             	mov    rdi,rdx
    96c1:	ff d0                	call   rax
    96c3:	48 8d 05 ae 61 00 00 	lea    rax,[rip+0x61ae]        # f878 <RedisModule_GetApi@@Base>
    96ca:	48 8b 00             	mov    rax,QWORD PTR [rax]
    96cd:	48 8d 15 cc 5f 00 00 	lea    rdx,[rip+0x5fcc]        # f6a0 <RedisModule_GetRandomBytes@@Base>
    96d4:	48 89 d6             	mov    rsi,rdx
    96d7:	48 8d 15 58 3c 00 00 	lea    rdx,[rip+0x3c58]        # d336 <RedisModule_OnLoad@@Base+0x2f17>
    96de:	48 89 d7             	mov    rdi,rdx
    96e1:	ff d0                	call   rax
    96e3:	48 8d 05 8e 61 00 00 	lea    rax,[rip+0x618e]        # f878 <RedisModule_GetApi@@Base>
    96ea:	48 8b 00             	mov    rax,QWORD PTR [rax]
    96ed:	48 8d 15 5c 64 00 00 	lea    rdx,[rip+0x645c]        # fb50 <RedisModule_GetRandomHexChars@@Base>
    96f4:	48 89 d6             	mov    rsi,rdx
    96f7:	48 8d 15 53 3c 00 00 	lea    rdx,[rip+0x3c53]        # d351 <RedisModule_OnLoad@@Base+0x2f32>
    96fe:	48 89 d7             	mov    rdi,rdx
    9701:	ff d0                	call   rax
    9703:	48 8d 05 6e 61 00 00 	lea    rax,[rip+0x616e]        # f878 <RedisModule_GetApi@@Base>
    970a:	48 8b 00             	mov    rax,QWORD PTR [rax]
    970d:	48 8d 15 cc 5b 00 00 	lea    rdx,[rip+0x5bcc]        # f2e0 <RedisModule_SetClusterFlags@@Base>
    9714:	48 89 d6             	mov    rsi,rdx
    9717:	48 8d 15 51 3c 00 00 	lea    rdx,[rip+0x3c51]        # d36f <RedisModule_OnLoad@@Base+0x2f50>
    971e:	48 89 d7             	mov    rdi,rdx
    9721:	ff d0                	call   rax
    9723:	48 8d 05 4e 61 00 00 	lea    rax,[rip+0x614e]        # f878 <RedisModule_GetApi@@Base>
    972a:	48 8b 00             	mov    rax,QWORD PTR [rax]
    972d:	48 8d 15 fc 5b 00 00 	lea    rdx,[rip+0x5bfc]        # f330 <RedisModule_ExportSharedAPI@@Base>
    9734:	48 89 d6             	mov    rsi,rdx
    9737:	48 8d 15 4d 3c 00 00 	lea    rdx,[rip+0x3c4d]        # d38b <RedisModule_OnLoad@@Base+0x2f6c>
    973e:	48 89 d7             	mov    rdi,rdx
    9741:	ff d0                	call   rax
    9743:	48 8d 05 2e 61 00 00 	lea    rax,[rip+0x612e]        # f878 <RedisModule_GetApi@@Base>
    974a:	48 8b 00             	mov    rax,QWORD PTR [rax]
    974d:	48 8d 15 ec 5b 00 00 	lea    rdx,[rip+0x5bec]        # f340 <RedisModule_GetSharedAPI@@Base>
    9754:	48 89 d6             	mov    rsi,rdx
    9757:	48 8d 15 49 3c 00 00 	lea    rdx,[rip+0x3c49]        # d3a7 <RedisModule_OnLoad@@Base+0x2f88>
    975e:	48 89 d7             	mov    rdi,rdx
    9761:	ff d0                	call   rax
    9763:	48 8d 05 0e 61 00 00 	lea    rax,[rip+0x610e]        # f878 <RedisModule_GetApi@@Base>
    976a:	48 8b 00             	mov    rax,QWORD PTR [rax]
    976d:	48 8d 15 e4 5a 00 00 	lea    rdx,[rip+0x5ae4]        # f258 <RedisModule_RegisterCommandFilter@@Base>
    9774:	48 89 d6             	mov    rsi,rdx
    9777:	48 8d 15 42 3c 00 00 	lea    rdx,[rip+0x3c42]        # d3c0 <RedisModule_OnLoad@@Base+0x2fa1>
    977e:	48 89 d7             	mov    rdi,rdx
    9781:	ff d0                	call   rax
    9783:	48 8d 05 ee 60 00 00 	lea    rax,[rip+0x60ee]        # f878 <RedisModule_GetApi@@Base>
    978a:	48 8b 00             	mov    rax,QWORD PTR [rax]
    978d:	48 8d 15 54 63 00 00 	lea    rdx,[rip+0x6354]        # fae8 <RedisModule_UnregisterCommandFilter@@Base>
    9794:	48 89 d6             	mov    rsi,rdx
    9797:	48 8d 15 4a 3c 00 00 	lea    rdx,[rip+0x3c4a]        # d3e8 <RedisModule_OnLoad@@Base+0x2fc9>
    979e:	48 89 d7             	mov    rdi,rdx
    97a1:	ff d0                	call   rax
    97a3:	48 8d 05 ce 60 00 00 	lea    rax,[rip+0x60ce]        # f878 <RedisModule_GetApi@@Base>
    97aa:	48 8b 00             	mov    rax,QWORD PTR [rax]
    97ad:	48 8d 15 94 5e 00 00 	lea    rdx,[rip+0x5e94]        # f648 <RedisModule_CommandFilterArgsCount@@Base>
    97b4:	48 89 d6             	mov    rsi,rdx
    97b7:	48 8d 15 52 3c 00 00 	lea    rdx,[rip+0x3c52]        # d410 <RedisModule_OnLoad@@Base+0x2ff1>
    97be:	48 89 d7             	mov    rdi,rdx
    97c1:	ff d0                	call   rax
    97c3:	48 8d 05 ae 60 00 00 	lea    rax,[rip+0x60ae]        # f878 <RedisModule_GetApi@@Base>
    97ca:	48 8b 00             	mov    rax,QWORD PTR [rax]
    97cd:	48 8d 15 4c 5b 00 00 	lea    rdx,[rip+0x5b4c]        # f320 <RedisModule_CommandFilterArgGet@@Base>
    97d4:	48 89 d6             	mov    rsi,rdx
    97d7:	48 8d 15 5a 3c 00 00 	lea    rdx,[rip+0x3c5a]        # d438 <RedisModule_OnLoad@@Base+0x3019>
    97de:	48 89 d7             	mov    rdi,rdx
    97e1:	ff d0                	call   rax
    97e3:	48 8d 05 8e 60 00 00 	lea    rax,[rip+0x608e]        # f878 <RedisModule_GetApi@@Base>
    97ea:	48 8b 00             	mov    rax,QWORD PTR [rax]
    97ed:	48 8d 15 74 5e 00 00 	lea    rdx,[rip+0x5e74]        # f668 <RedisModule_CommandFilterArgInsert@@Base>
    97f4:	48 89 d6             	mov    rsi,rdx
    97f7:	48 8d 15 5a 3c 00 00 	lea    rdx,[rip+0x3c5a]        # d458 <RedisModule_OnLoad@@Base+0x3039>
    97fe:	48 89 d7             	mov    rdi,rdx
    9801:	ff d0                	call   rax
    9803:	48 8d 05 6e 60 00 00 	lea    rax,[rip+0x606e]        # f878 <RedisModule_GetApi@@Base>
    980a:	48 8b 00             	mov    rax,QWORD PTR [rax]
    980d:	48 8d 15 e4 5e 00 00 	lea    rdx,[rip+0x5ee4]        # f6f8 <RedisModule_CommandFilterArgReplace@@Base>
    9814:	48 89 d6             	mov    rsi,rdx
    9817:	48 8d 15 62 3c 00 00 	lea    rdx,[rip+0x3c62]        # d480 <RedisModule_OnLoad@@Base+0x3061>
    981e:	48 89 d7             	mov    rdi,rdx
    9821:	ff d0                	call   rax
    9823:	48 8d 05 4e 60 00 00 	lea    rax,[rip+0x604e]        # f878 <RedisModule_GetApi@@Base>
    982a:	48 8b 00             	mov    rax,QWORD PTR [rax]
    982d:	48 8d 15 4c 5c 00 00 	lea    rdx,[rip+0x5c4c]        # f480 <RedisModule_CommandFilterArgDelete@@Base>
    9834:	48 89 d6             	mov    rsi,rdx
    9837:	48 8d 15 6a 3c 00 00 	lea    rdx,[rip+0x3c6a]        # d4a8 <RedisModule_OnLoad@@Base+0x3089>
    983e:	48 89 d7             	mov    rdi,rdx
    9841:	ff d0                	call   rax
    9843:	48 8d 05 2e 60 00 00 	lea    rax,[rip+0x602e]        # f878 <RedisModule_GetApi@@Base>
    984a:	48 8b 00             	mov    rax,QWORD PTR [rax]
    984d:	48 8d 15 1c 5e 00 00 	lea    rdx,[rip+0x5e1c]        # f670 <RedisModule_CommandFilterGetClientId@@Base>
    9854:	48 89 d6             	mov    rsi,rdx
    9857:	48 8d 15 72 3c 00 00 	lea    rdx,[rip+0x3c72]        # d4d0 <RedisModule_OnLoad@@Base+0x30b1>
    985e:	48 89 d7             	mov    rdi,rdx
    9861:	ff d0                	call   rax
    9863:	48 8d 05 0e 60 00 00 	lea    rax,[rip+0x600e]        # f878 <RedisModule_GetApi@@Base>
    986a:	48 8b 00             	mov    rax,QWORD PTR [rax]
    986d:	48 8d 15 3c 58 00 00 	lea    rdx,[rip+0x583c]        # f0b0 <RedisModule_Fork@@Base>
    9874:	48 89 d6             	mov    rsi,rdx
    9877:	48 8d 15 77 3c 00 00 	lea    rdx,[rip+0x3c77]        # d4f5 <RedisModule_OnLoad@@Base+0x30d6>
    987e:	48 89 d7             	mov    rdi,rdx
    9881:	ff d0                	call   rax
    9883:	48 8d 05 ee 5f 00 00 	lea    rax,[rip+0x5fee]        # f878 <RedisModule_GetApi@@Base>
    988a:	48 8b 00             	mov    rax,QWORD PTR [rax]
    988d:	48 8d 15 b4 62 00 00 	lea    rdx,[rip+0x62b4]        # fb48 <RedisModule_SendChildHeartbeat@@Base>
    9894:	48 89 d6             	mov    rsi,rdx
    9897:	48 8d 15 6a 3c 00 00 	lea    rdx,[rip+0x3c6a]        # d508 <RedisModule_OnLoad@@Base+0x30e9>
    989e:	48 89 d7             	mov    rdi,rdx
    98a1:	ff d0                	call   rax
    98a3:	48 8d 05 ce 5f 00 00 	lea    rax,[rip+0x5fce]        # f878 <RedisModule_GetApi@@Base>
    98aa:	48 8b 00             	mov    rax,QWORD PTR [rax]
    98ad:	48 8d 15 4c 5e 00 00 	lea    rdx,[rip+0x5e4c]        # f700 <RedisModule_ExitFromChild@@Base>
    98b4:	48 89 d6             	mov    rsi,rdx
    98b7:	48 8d 15 69 3c 00 00 	lea    rdx,[rip+0x3c69]        # d527 <RedisModule_OnLoad@@Base+0x3108>
    98be:	48 89 d7             	mov    rdi,rdx
    98c1:	ff d0                	call   rax
    98c3:	48 8d 05 ae 5f 00 00 	lea    rax,[rip+0x5fae]        # f878 <RedisModule_GetApi@@Base>
    98ca:	48 8b 00             	mov    rax,QWORD PTR [rax]
    98cd:	48 8d 15 04 5a 00 00 	lea    rdx,[rip+0x5a04]        # f2d8 <RedisModule_KillForkChild@@Base>
    98d4:	48 89 d6             	mov    rsi,rdx
    98d7:	48 8d 15 63 3c 00 00 	lea    rdx,[rip+0x3c63]        # d541 <RedisModule_OnLoad@@Base+0x3122>
    98de:	48 89 d7             	mov    rdi,rdx
    98e1:	ff d0                	call   rax
    98e3:	48 8d 05 8e 5f 00 00 	lea    rax,[rip+0x5f8e]        # f878 <RedisModule_GetApi@@Base>
    98ea:	48 8b 00             	mov    rax,QWORD PTR [rax]
    98ed:	48 8d 15 64 61 00 00 	lea    rdx,[rip+0x6164]        # fa58 <RedisModule_GetUsedMemoryRatio@@Base>
    98f4:	48 89 d6             	mov    rsi,rdx
    98f7:	48 8d 15 62 3c 00 00 	lea    rdx,[rip+0x3c62]        # d560 <RedisModule_OnLoad@@Base+0x3141>
    98fe:	48 89 d7             	mov    rdi,rdx
    9901:	ff d0                	call   rax
    9903:	48 8d 05 6e 5f 00 00 	lea    rax,[rip+0x5f6e]        # f878 <RedisModule_GetApi@@Base>
    990a:	48 8b 00             	mov    rax,QWORD PTR [rax]
    990d:	48 8d 15 94 5a 00 00 	lea    rdx,[rip+0x5a94]        # f3a8 <RedisModule_MallocSize@@Base>
    9914:	48 89 d6             	mov    rsi,rdx
    9917:	48 8d 15 61 3c 00 00 	lea    rdx,[rip+0x3c61]        # d57f <RedisModule_OnLoad@@Base+0x3160>
    991e:	48 89 d7             	mov    rdi,rdx
    9921:	ff d0                	call   rax
    9923:	48 8d 05 4e 5f 00 00 	lea    rax,[rip+0x5f4e]        # f878 <RedisModule_GetApi@@Base>
    992a:	48 8b 00             	mov    rax,QWORD PTR [rax]
    992d:	48 8d 15 3c 61 00 00 	lea    rdx,[rip+0x613c]        # fa70 <RedisModule_MallocUsableSize@@Base>
    9934:	48 89 d6             	mov    rsi,rdx
    9937:	48 8d 15 58 3c 00 00 	lea    rdx,[rip+0x3c58]        # d596 <RedisModule_OnLoad@@Base+0x3177>
    993e:	48 89 d7             	mov    rdi,rdx
    9941:	ff d0                	call   rax
    9943:	48 8d 05 2e 5f 00 00 	lea    rax,[rip+0x5f2e]        # f878 <RedisModule_GetApi@@Base>
    994a:	48 8b 00             	mov    rax,QWORD PTR [rax]
    994d:	48 8d 15 14 61 00 00 	lea    rdx,[rip+0x6114]        # fa68 <RedisModule_MallocSizeString@@Base>
    9954:	48 89 d6             	mov    rsi,rdx
    9957:	48 8d 15 55 3c 00 00 	lea    rdx,[rip+0x3c55]        # d5b3 <RedisModule_OnLoad@@Base+0x3194>
    995e:	48 89 d7             	mov    rdi,rdx
    9961:	ff d0                	call   rax
    9963:	48 8d 05 0e 5f 00 00 	lea    rax,[rip+0x5f0e]        # f878 <RedisModule_GetApi@@Base>
    996a:	48 8b 00             	mov    rax,QWORD PTR [rax]
    996d:	48 8d 15 5c 58 00 00 	lea    rdx,[rip+0x585c]        # f1d0 <RedisModule_MallocSizeDict@@Base>
    9974:	48 89 d6             	mov    rsi,rdx
    9977:	48 8d 15 52 3c 00 00 	lea    rdx,[rip+0x3c52]        # d5d0 <RedisModule_OnLoad@@Base+0x31b1>
    997e:	48 89 d7             	mov    rdi,rdx
    9981:	ff d0                	call   rax
    9983:	48 8d 05 ee 5e 00 00 	lea    rax,[rip+0x5eee]        # f878 <RedisModule_GetApi@@Base>
    998a:	48 8b 00             	mov    rax,QWORD PTR [rax]
    998d:	48 8d 15 24 5c 00 00 	lea    rdx,[rip+0x5c24]        # f5b8 <RedisModule_CreateModuleUser@@Base>
    9994:	48 89 d6             	mov    rsi,rdx
    9997:	48 8d 15 4d 3c 00 00 	lea    rdx,[rip+0x3c4d]        # d5eb <RedisModule_OnLoad@@Base+0x31cc>
    999e:	48 89 d7             	mov    rdi,rdx
    99a1:	ff d0                	call   rax
    99a3:	48 8d 05 ce 5e 00 00 	lea    rax,[rip+0x5ece]        # f878 <RedisModule_GetApi@@Base>
    99aa:	48 8b 00             	mov    rax,QWORD PTR [rax]
    99ad:	48 8d 15 ec 5b 00 00 	lea    rdx,[rip+0x5bec]        # f5a0 <RedisModule_FreeModuleUser@@Base>
    99b4:	48 89 d6             	mov    rsi,rdx
    99b7:	48 8d 15 4a 3c 00 00 	lea    rdx,[rip+0x3c4a]        # d608 <RedisModule_OnLoad@@Base+0x31e9>
    99be:	48 89 d7             	mov    rdi,rdx
    99c1:	ff d0                	call   rax
    99c3:	48 8d 05 ae 5e 00 00 	lea    rax,[rip+0x5eae]        # f878 <RedisModule_GetApi@@Base>
    99ca:	48 8b 00             	mov    rax,QWORD PTR [rax]
    99cd:	48 8d 15 7c 5b 00 00 	lea    rdx,[rip+0x5b7c]        # f550 <RedisModule_SetContextUser@@Base>
    99d4:	48 89 d6             	mov    rsi,rdx
    99d7:	48 8d 15 45 3c 00 00 	lea    rdx,[rip+0x3c45]        # d623 <RedisModule_OnLoad@@Base+0x3204>
    99de:	48 89 d7             	mov    rdi,rdx
    99e1:	ff d0                	call   rax
    99e3:	48 8d 05 8e 5e 00 00 	lea    rax,[rip+0x5e8e]        # f878 <RedisModule_GetApi@@Base>
    99ea:	48 8b 00             	mov    rax,QWORD PTR [rax]
    99ed:	48 8d 15 8c 58 00 00 	lea    rdx,[rip+0x588c]        # f280 <RedisModule_SetModuleUserACL@@Base>
    99f4:	48 89 d6             	mov    rsi,rdx
    99f7:	48 8d 15 40 3c 00 00 	lea    rdx,[rip+0x3c40]        # d63e <RedisModule_OnLoad@@Base+0x321f>
    99fe:	48 89 d7             	mov    rdi,rdx
    9a01:	ff d0                	call   rax
    9a03:	48 8d 05 6e 5e 00 00 	lea    rax,[rip+0x5e6e]        # f878 <RedisModule_GetApi@@Base>
    9a0a:	48 8b 00             	mov    rax,QWORD PTR [rax]
    9a0d:	48 8d 15 dc 5a 00 00 	lea    rdx,[rip+0x5adc]        # f4f0 <RedisModule_SetModuleUserACLString@@Base>
    9a14:	48 89 d6             	mov    rsi,rdx
    9a17:	48 8d 15 42 3c 00 00 	lea    rdx,[rip+0x3c42]        # d660 <RedisModule_OnLoad@@Base+0x3241>
    9a1e:	48 89 d7             	mov    rdi,rdx
    9a21:	ff d0                	call   rax
    9a23:	48 8d 05 4e 5e 00 00 	lea    rax,[rip+0x5e4e]        # f878 <RedisModule_GetApi@@Base>
    9a2a:	48 8b 00             	mov    rax,QWORD PTR [rax]
    9a2d:	48 8d 15 c4 58 00 00 	lea    rdx,[rip+0x58c4]        # f2f8 <RedisModule_GetModuleUserACLString@@Base>
    9a34:	48 89 d6             	mov    rsi,rdx
    9a37:	48 8d 15 4a 3c 00 00 	lea    rdx,[rip+0x3c4a]        # d688 <RedisModule_OnLoad@@Base+0x3269>
    9a3e:	48 89 d7             	mov    rdi,rdx
    9a41:	ff d0                	call   rax
    9a43:	48 8d 05 2e 5e 00 00 	lea    rax,[rip+0x5e2e]        # f878 <RedisModule_GetApi@@Base>
    9a4a:	48 8b 00             	mov    rax,QWORD PTR [rax]
    9a4d:	48 8d 15 9c 60 00 00 	lea    rdx,[rip+0x609c]        # faf0 <RedisModule_GetCurrentUserName@@Base>
    9a54:	48 89 d6             	mov    rsi,rdx
    9a57:	48 8d 15 52 3c 00 00 	lea    rdx,[rip+0x3c52]        # d6b0 <RedisModule_OnLoad@@Base+0x3291>
    9a5e:	48 89 d7             	mov    rdi,rdx
    9a61:	ff d0                	call   rax
    9a63:	48 8d 05 0e 5e 00 00 	lea    rax,[rip+0x5e0e]        # f878 <RedisModule_GetApi@@Base>
    9a6a:	48 8b 00             	mov    rax,QWORD PTR [rax]
    9a6d:	48 8d 15 4c 5f 00 00 	lea    rdx,[rip+0x5f4c]        # f9c0 <RedisModule_GetModuleUserFromUserName@@Base>
    9a74:	48 89 d6             	mov    rsi,rdx
    9a77:	48 8d 15 52 3c 00 00 	lea    rdx,[rip+0x3c52]        # d6d0 <RedisModule_OnLoad@@Base+0x32b1>
    9a7e:	48 89 d7             	mov    rdi,rdx
    9a81:	ff d0                	call   rax
    9a83:	48 8d 05 ee 5d 00 00 	lea    rax,[rip+0x5dee]        # f878 <RedisModule_GetApi@@Base>
    9a8a:	48 8b 00             	mov    rax,QWORD PTR [rax]
    9a8d:	48 8d 15 2c 5d 00 00 	lea    rdx,[rip+0x5d2c]        # f7c0 <RedisModule_ACLCheckCommandPermissions@@Base>
    9a94:	48 89 d6             	mov    rsi,rdx
    9a97:	48 8d 15 5a 3c 00 00 	lea    rdx,[rip+0x3c5a]        # d6f8 <RedisModule_OnLoad@@Base+0x32d9>
    9a9e:	48 89 d7             	mov    rdi,rdx
    9aa1:	ff d0                	call   rax
    9aa3:	48 8d 05 ce 5d 00 00 	lea    rax,[rip+0x5dce]        # f878 <RedisModule_GetApi@@Base>
    9aaa:	48 8b 00             	mov    rax,QWORD PTR [rax]
    9aad:	48 8d 15 8c 5c 00 00 	lea    rdx,[rip+0x5c8c]        # f740 <RedisModule_ACLCheckKeyPermissions@@Base>
    9ab4:	48 89 d6             	mov    rsi,rdx
    9ab7:	48 8d 15 62 3c 00 00 	lea    rdx,[rip+0x3c62]        # d720 <RedisModule_OnLoad@@Base+0x3301>
    9abe:	48 89 d7             	mov    rdi,rdx
    9ac1:	ff d0                	call   rax
    9ac3:	48 8d 05 ae 5d 00 00 	lea    rax,[rip+0x5dae]        # f878 <RedisModule_GetApi@@Base>
    9aca:	48 8b 00             	mov    rax,QWORD PTR [rax]
    9acd:	48 8d 15 8c 59 00 00 	lea    rdx,[rip+0x598c]        # f460 <RedisModule_ACLCheckChannelPermissions@@Base>
    9ad4:	48 89 d6             	mov    rsi,rdx
    9ad7:	48 8d 15 6a 3c 00 00 	lea    rdx,[rip+0x3c6a]        # d748 <RedisModule_OnLoad@@Base+0x3329>
    9ade:	48 89 d7             	mov    rdi,rdx
    9ae1:	ff d0                	call   rax
    9ae3:	48 8d 05 8e 5d 00 00 	lea    rax,[rip+0x5d8e]        # f878 <RedisModule_GetApi@@Base>
    9aea:	48 8b 00             	mov    rax,QWORD PTR [rax]
    9aed:	48 8d 15 8c 58 00 00 	lea    rdx,[rip+0x588c]        # f380 <RedisModule_ACLAddLogEntry@@Base>
    9af4:	48 89 d6             	mov    rsi,rdx
    9af7:	48 8d 15 71 3c 00 00 	lea    rdx,[rip+0x3c71]        # d76f <RedisModule_OnLoad@@Base+0x3350>
    9afe:	48 89 d7             	mov    rdi,rdx
    9b01:	ff d0                	call   rax
    9b03:	48 8d 05 6e 5d 00 00 	lea    rax,[rip+0x5d6e]        # f878 <RedisModule_GetApi@@Base>
    9b0a:	48 8b 00             	mov    rax,QWORD PTR [rax]
    9b0d:	48 8d 15 84 57 00 00 	lea    rdx,[rip+0x5784]        # f298 <RedisModule_ACLAddLogEntryByUserName@@Base>
    9b14:	48 89 d6             	mov    rsi,rdx
    9b17:	48 8d 15 72 3c 00 00 	lea    rdx,[rip+0x3c72]        # d790 <RedisModule_OnLoad@@Base+0x3371>
    9b1e:	48 89 d7             	mov    rdi,rdx
    9b21:	ff d0                	call   rax
    9b23:	48 8d 05 4e 5d 00 00 	lea    rax,[rip+0x5d4e]        # f878 <RedisModule_GetApi@@Base>
    9b2a:	48 8b 00             	mov    rax,QWORD PTR [rax]
    9b2d:	48 8d 15 b4 5b 00 00 	lea    rdx,[rip+0x5bb4]        # f6e8 <RedisModule_DeauthenticateAndCloseClient@@Base>
    9b34:	48 89 d6             	mov    rsi,rdx
    9b37:	48 8d 15 7a 3c 00 00 	lea    rdx,[rip+0x3c7a]        # d7b8 <RedisModule_OnLoad@@Base+0x3399>
    9b3e:	48 89 d7             	mov    rdi,rdx
    9b41:	ff d0                	call   rax
    9b43:	48 8d 05 2e 5d 00 00 	lea    rax,[rip+0x5d2e]        # f878 <RedisModule_GetApi@@Base>
    9b4a:	48 8b 00             	mov    rax,QWORD PTR [rax]
    9b4d:	48 8d 15 2c 56 00 00 	lea    rdx,[rip+0x562c]        # f180 <RedisModule_AuthenticateClientWithACLUser@@Base>
    9b54:	48 89 d6             	mov    rsi,rdx
    9b57:	48 8d 15 8a 3c 00 00 	lea    rdx,[rip+0x3c8a]        # d7e8 <RedisModule_OnLoad@@Base+0x33c9>
    9b5e:	48 89 d7             	mov    rdi,rdx
    9b61:	ff d0                	call   rax
    9b63:	48 8d 05 0e 5d 00 00 	lea    rax,[rip+0x5d0e]        # f878 <RedisModule_GetApi@@Base>
    9b6a:	48 8b 00             	mov    rax,QWORD PTR [rax]
    9b6d:	48 8d 15 84 5d 00 00 	lea    rdx,[rip+0x5d84]        # f8f8 <RedisModule_AuthenticateClientWithUser@@Base>
    9b74:	48 89 d6             	mov    rsi,rdx
    9b77:	48 8d 15 9a 3c 00 00 	lea    rdx,[rip+0x3c9a]        # d818 <RedisModule_OnLoad@@Base+0x33f9>
    9b7e:	48 89 d7             	mov    rdi,rdx
    9b81:	ff d0                	call   rax
    9b83:	48 8d 05 ee 5c 00 00 	lea    rax,[rip+0x5cee]        # f878 <RedisModule_GetApi@@Base>
    9b8a:	48 8b 00             	mov    rax,QWORD PTR [rax]
    9b8d:	48 8d 15 44 56 00 00 	lea    rdx,[rip+0x5644]        # f1d8 <RedisModule_RedactClientCommandArgument@@Base>
    9b94:	48 89 d6             	mov    rsi,rdx
    9b97:	48 8d 15 a2 3c 00 00 	lea    rdx,[rip+0x3ca2]        # d840 <RedisModule_OnLoad@@Base+0x3421>
    9b9e:	48 89 d7             	mov    rdi,rdx
    9ba1:	ff d0                	call   rax
    9ba3:	48 8d 05 ce 5c 00 00 	lea    rax,[rip+0x5cce]        # f878 <RedisModule_GetApi@@Base>
    9baa:	48 8b 00             	mov    rax,QWORD PTR [rax]
    9bad:	48 8d 15 54 55 00 00 	lea    rdx,[rip+0x5554]        # f108 <RedisModule_GetClientCertificate@@Base>
    9bb4:	48 89 d6             	mov    rsi,rdx
    9bb7:	48 8d 15 aa 3c 00 00 	lea    rdx,[rip+0x3caa]        # d868 <RedisModule_OnLoad@@Base+0x3449>
    9bbe:	48 89 d7             	mov    rdi,rdx
    9bc1:	ff d0                	call   rax
    9bc3:	48 8d 05 ae 5c 00 00 	lea    rax,[rip+0x5cae]        # f878 <RedisModule_GetApi@@Base>
    9bca:	48 8b 00             	mov    rax,QWORD PTR [rax]
    9bcd:	48 8d 15 94 58 00 00 	lea    rdx,[rip+0x5894]        # f468 <RedisModule_GetCommandKeys@@Base>
    9bd4:	48 89 d6             	mov    rsi,rdx
    9bd7:	48 8d 15 ab 3c 00 00 	lea    rdx,[rip+0x3cab]        # d889 <RedisModule_OnLoad@@Base+0x346a>
    9bde:	48 89 d7             	mov    rdi,rdx
    9be1:	ff d0                	call   rax
    9be3:	48 8d 05 8e 5c 00 00 	lea    rax,[rip+0x5c8e]        # f878 <RedisModule_GetApi@@Base>
    9bea:	48 8b 00             	mov    rax,QWORD PTR [rax]
    9bed:	48 8d 15 44 5e 00 00 	lea    rdx,[rip+0x5e44]        # fa38 <RedisModule_GetCommandKeysWithFlags@@Base>
    9bf4:	48 89 d6             	mov    rsi,rdx
    9bf7:	48 8d 15 aa 3c 00 00 	lea    rdx,[rip+0x3caa]        # d8a8 <RedisModule_OnLoad@@Base+0x3489>
    9bfe:	48 89 d7             	mov    rdi,rdx
    9c01:	ff d0                	call   rax
    9c03:	48 8d 05 6e 5c 00 00 	lea    rax,[rip+0x5c6e]        # f878 <RedisModule_GetApi@@Base>
    9c0a:	48 8b 00             	mov    rax,QWORD PTR [rax]
    9c0d:	48 8d 15 74 5d 00 00 	lea    rdx,[rip+0x5d74]        # f988 <RedisModule_GetCurrentCommandName@@Base>
    9c14:	48 89 d6             	mov    rsi,rdx
    9c17:	48 8d 15 b2 3c 00 00 	lea    rdx,[rip+0x3cb2]        # d8d0 <RedisModule_OnLoad@@Base+0x34b1>
    9c1e:	48 89 d7             	mov    rdi,rdx
    9c21:	ff d0                	call   rax
    9c23:	48 8d 05 4e 5c 00 00 	lea    rax,[rip+0x5c4e]        # f878 <RedisModule_GetApi@@Base>
    9c2a:	48 8b 00             	mov    rax,QWORD PTR [rax]
    9c2d:	48 8d 15 04 5b 00 00 	lea    rdx,[rip+0x5b04]        # f738 <RedisModule_RegisterDefragFunc@@Base>
    9c34:	48 89 d6             	mov    rsi,rdx
    9c37:	48 8d 15 ba 3c 00 00 	lea    rdx,[rip+0x3cba]        # d8f8 <RedisModule_OnLoad@@Base+0x34d9>
    9c3e:	48 89 d7             	mov    rdi,rdx
    9c41:	ff d0                	call   rax
    9c43:	48 8d 05 2e 5c 00 00 	lea    rax,[rip+0x5c2e]        # f878 <RedisModule_GetApi@@Base>
    9c4a:	48 8b 00             	mov    rax,QWORD PTR [rax]
    9c4d:	48 8d 15 d4 5c 00 00 	lea    rdx,[rip+0x5cd4]        # f928 <RedisModule_DefragAlloc@@Base>
    9c54:	48 89 d6             	mov    rsi,rdx
    9c57:	48 8d 15 b9 3c 00 00 	lea    rdx,[rip+0x3cb9]        # d917 <RedisModule_OnLoad@@Base+0x34f8>
    9c5e:	48 89 d7             	mov    rdi,rdx
    9c61:	ff d0                	call   rax
    9c63:	48 8d 05 0e 5c 00 00 	lea    rax,[rip+0x5c0e]        # f878 <RedisModule_GetApi@@Base>
    9c6a:	48 8b 00             	mov    rax,QWORD PTR [rax]
    9c6d:	48 8d 15 d4 58 00 00 	lea    rdx,[rip+0x58d4]        # f548 <RedisModule_DefragRedisModuleString@@Base>
    9c74:	48 89 d6             	mov    rsi,rdx
    9c77:	48 8d 15 b2 3c 00 00 	lea    rdx,[rip+0x3cb2]        # d930 <RedisModule_OnLoad@@Base+0x3511>
    9c7e:	48 89 d7             	mov    rdi,rdx
    9c81:	ff d0                	call   rax
    9c83:	48 8d 05 ee 5b 00 00 	lea    rax,[rip+0x5bee]        # f878 <RedisModule_GetApi@@Base>
    9c8a:	48 8b 00             	mov    rax,QWORD PTR [rax]
    9c8d:	48 8d 15 e4 55 00 00 	lea    rdx,[rip+0x55e4]        # f278 <RedisModule_DefragShouldStop@@Base>
    9c94:	48 89 d6             	mov    rsi,rdx
    9c97:	48 8d 15 b6 3c 00 00 	lea    rdx,[rip+0x3cb6]        # d954 <RedisModule_OnLoad@@Base+0x3535>
    9c9e:	48 89 d7             	mov    rdi,rdx
    9ca1:	ff d0                	call   rax
    9ca3:	48 8d 05 ce 5b 00 00 	lea    rax,[rip+0x5bce]        # f878 <RedisModule_GetApi@@Base>
    9caa:	48 8b 00             	mov    rax,QWORD PTR [rax]
    9cad:	48 8d 15 44 58 00 00 	lea    rdx,[rip+0x5844]        # f4f8 <RedisModule_DefragCursorSet@@Base>
    9cb4:	48 89 d6             	mov    rsi,rdx
    9cb7:	48 8d 15 b3 3c 00 00 	lea    rdx,[rip+0x3cb3]        # d971 <RedisModule_OnLoad@@Base+0x3552>
    9cbe:	48 89 d7             	mov    rdi,rdx
    9cc1:	ff d0                	call   rax
    9cc3:	48 8d 05 ae 5b 00 00 	lea    rax,[rip+0x5bae]        # f878 <RedisModule_GetApi@@Base>
    9cca:	48 8b 00             	mov    rax,QWORD PTR [rax]
    9ccd:	48 8d 15 94 5b 00 00 	lea    rdx,[rip+0x5b94]        # f868 <RedisModule_DefragCursorGet@@Base>
    9cd4:	48 89 d6             	mov    rsi,rdx
    9cd7:	48 8d 15 af 3c 00 00 	lea    rdx,[rip+0x3caf]        # d98d <RedisModule_OnLoad@@Base+0x356e>
    9cde:	48 89 d7             	mov    rdi,rdx
    9ce1:	ff d0                	call   rax
    9ce3:	48 8d 05 8e 5b 00 00 	lea    rax,[rip+0x5b8e]        # f878 <RedisModule_GetApi@@Base>
    9cea:	48 8b 00             	mov    rax,QWORD PTR [rax]
    9ced:	48 8d 15 84 54 00 00 	lea    rdx,[rip+0x5484]        # f178 <RedisModule_GetKeyNameFromDefragCtx@@Base>
    9cf4:	48 89 d6             	mov    rsi,rdx
    9cf7:	48 8d 15 b2 3c 00 00 	lea    rdx,[rip+0x3cb2]        # d9b0 <RedisModule_OnLoad@@Base+0x3591>
    9cfe:	48 89 d7             	mov    rdi,rdx
    9d01:	ff d0                	call   rax
    9d03:	48 8d 05 6e 5b 00 00 	lea    rax,[rip+0x5b6e]        # f878 <RedisModule_GetApi@@Base>
    9d0a:	48 8b 00             	mov    rax,QWORD PTR [rax]
    9d0d:	48 8d 15 04 54 00 00 	lea    rdx,[rip+0x5404]        # f118 <RedisModule_GetDbIdFromDefragCtx@@Base>
    9d14:	48 89 d6             	mov    rsi,rdx
    9d17:	48 8d 15 ba 3c 00 00 	lea    rdx,[rip+0x3cba]        # d9d8 <RedisModule_OnLoad@@Base+0x35b9>
    9d1e:	48 89 d7             	mov    rdi,rdx
    9d21:	ff d0                	call   rax
    9d23:	48 8d 05 4e 5b 00 00 	lea    rax,[rip+0x5b4e]        # f878 <RedisModule_GetApi@@Base>
    9d2a:	48 8b 00             	mov    rax,QWORD PTR [rax]
    9d2d:	48 8d 15 e4 5a 00 00 	lea    rdx,[rip+0x5ae4]        # f818 <RedisModule_EventLoopAdd@@Base>
    9d34:	48 89 d6             	mov    rsi,rdx
    9d37:	48 8d 15 bb 3c 00 00 	lea    rdx,[rip+0x3cbb]        # d9f9 <RedisModule_OnLoad@@Base+0x35da>
    9d3e:	48 89 d7             	mov    rdi,rdx
    9d41:	ff d0                	call   rax
    9d43:	48 8d 05 2e 5b 00 00 	lea    rax,[rip+0x5b2e]        # f878 <RedisModule_GetApi@@Base>
    9d4a:	48 8b 00             	mov    rax,QWORD PTR [rax]
    9d4d:	48 8d 15 7c 58 00 00 	lea    rdx,[rip+0x587c]        # f5d0 <RedisModule_EventLoopDel@@Base>
    9d54:	48 89 d6             	mov    rsi,rdx
    9d57:	48 8d 15 b4 3c 00 00 	lea    rdx,[rip+0x3cb4]        # da12 <RedisModule_OnLoad@@Base+0x35f3>
    9d5e:	48 89 d7             	mov    rdi,rdx
    9d61:	ff d0                	call   rax
    9d63:	48 8d 05 0e 5b 00 00 	lea    rax,[rip+0x5b0e]        # f878 <RedisModule_GetApi@@Base>
    9d6a:	48 8b 00             	mov    rax,QWORD PTR [rax]
    9d6d:	48 8d 15 6c 54 00 00 	lea    rdx,[rip+0x546c]        # f1e0 <RedisModule_EventLoopAddOneShot@@Base>
    9d74:	48 89 d6             	mov    rsi,rdx
    9d77:	48 8d 15 b2 3c 00 00 	lea    rdx,[rip+0x3cb2]        # da30 <RedisModule_OnLoad@@Base+0x3611>
    9d7e:	48 89 d7             	mov    rdi,rdx
    9d81:	ff d0                	call   rax
    9d83:	48 8d 05 ee 5a 00 00 	lea    rax,[rip+0x5aee]        # f878 <RedisModule_GetApi@@Base>
    9d8a:	48 8b 00             	mov    rax,QWORD PTR [rax]
    9d8d:	48 8d 15 94 55 00 00 	lea    rdx,[rip+0x5594]        # f328 <RedisModule_RegisterBoolConfig@@Base>
    9d94:	48 89 d6             	mov    rsi,rdx
    9d97:	48 8d 15 b2 3c 00 00 	lea    rdx,[rip+0x3cb2]        # da50 <RedisModule_OnLoad@@Base+0x3631>
    9d9e:	48 89 d7             	mov    rdi,rdx
    9da1:	ff d0                	call   rax
    9da3:	48 8d 05 ce 5a 00 00 	lea    rax,[rip+0x5ace]        # f878 <RedisModule_GetApi@@Base>
    9daa:	48 8b 00             	mov    rax,QWORD PTR [rax]
    9dad:	48 8d 15 7c 54 00 00 	lea    rdx,[rip+0x547c]        # f230 <RedisModule_RegisterNumericConfig@@Base>
    9db4:	48 89 d6             	mov    rsi,rdx
    9db7:	48 8d 15 b2 3c 00 00 	lea    rdx,[rip+0x3cb2]        # da70 <RedisModule_OnLoad@@Base+0x3651>
    9dbe:	48 89 d7             	mov    rdi,rdx
    9dc1:	ff d0                	call   rax
    9dc3:	48 8d 05 ae 5a 00 00 	lea    rax,[rip+0x5aae]        # f878 <RedisModule_GetApi@@Base>
    9dca:	48 8b 00             	mov    rax,QWORD PTR [rax]
    9dcd:	48 8d 15 74 56 00 00 	lea    rdx,[rip+0x5674]        # f448 <RedisModule_RegisterStringConfig@@Base>
    9dd4:	48 89 d6             	mov    rsi,rdx
    9dd7:	48 8d 15 ba 3c 00 00 	lea    rdx,[rip+0x3cba]        # da98 <RedisModule_OnLoad@@Base+0x3679>
    9dde:	48 89 d7             	mov    rdi,rdx
    9de1:	ff d0                	call   rax
    9de3:	48 8d 05 8e 5a 00 00 	lea    rax,[rip+0x5a8e]        # f878 <RedisModule_GetApi@@Base>
    9dea:	48 8b 00             	mov    rax,QWORD PTR [rax]
    9ded:	48 8d 15 cc 5a 00 00 	lea    rdx,[rip+0x5acc]        # f8c0 <RedisModule_RegisterEnumConfig@@Base>
    9df4:	48 89 d6             	mov    rsi,rdx
    9df7:	48 8d 15 c2 3c 00 00 	lea    rdx,[rip+0x3cc2]        # dac0 <RedisModule_OnLoad@@Base+0x36a1>
    9dfe:	48 89 d7             	mov    rdi,rdx
    9e01:	ff d0                	call   rax
    9e03:	48 8d 05 6e 5a 00 00 	lea    rax,[rip+0x5a6e]        # f878 <RedisModule_GetApi@@Base>
    9e0a:	48 8b 00             	mov    rax,QWORD PTR [rax]
    9e0d:	48 8d 15 7c 5a 00 00 	lea    rdx,[rip+0x5a7c]        # f890 <RedisModule_LoadConfigs@@Base>
    9e14:	48 89 d6             	mov    rsi,rdx
    9e17:	48 8d 15 c1 3c 00 00 	lea    rdx,[rip+0x3cc1]        # dadf <RedisModule_OnLoad@@Base+0x36c0>
    9e1e:	48 89 d7             	mov    rdi,rdx
    9e21:	ff d0                	call   rax
    9e23:	48 8d 05 4e 5a 00 00 	lea    rax,[rip+0x5a4e]        # f878 <RedisModule_GetApi@@Base>
    9e2a:	48 8b 00             	mov    rax,QWORD PTR [rax]
    9e2d:	48 8d 15 dc 57 00 00 	lea    rdx,[rip+0x57dc]        # f610 <RedisModule_RdbStreamCreateFromFile@@Base>
    9e34:	48 89 d6             	mov    rsi,rdx
    9e37:	48 8d 15 ba 3c 00 00 	lea    rdx,[rip+0x3cba]        # daf8 <RedisModule_OnLoad@@Base+0x36d9>
    9e3e:	48 89 d7             	mov    rdi,rdx
    9e41:	ff d0                	call   rax
    9e43:	48 8d 05 2e 5a 00 00 	lea    rax,[rip+0x5a2e]        # f878 <RedisModule_GetApi@@Base>
    9e4a:	48 8b 00             	mov    rax,QWORD PTR [rax]
    9e4d:	48 8d 15 0c 55 00 00 	lea    rdx,[rip+0x550c]        # f360 <RedisModule_RdbStreamFree@@Base>
    9e54:	48 89 d6             	mov    rsi,rdx
    9e57:	48 8d 15 be 3c 00 00 	lea    rdx,[rip+0x3cbe]        # db1c <RedisModule_OnLoad@@Base+0x36fd>
    9e5e:	48 89 d7             	mov    rdi,rdx
    9e61:	ff d0                	call   rax
    9e63:	48 8d 05 0e 5a 00 00 	lea    rax,[rip+0x5a0e]        # f878 <RedisModule_GetApi@@Base>
    9e6a:	48 8b 00             	mov    rax,QWORD PTR [rax]
    9e6d:	48 8d 15 54 5c 00 00 	lea    rdx,[rip+0x5c54]        # fac8 <RedisModule_RdbLoad@@Base>
    9e74:	48 89 d6             	mov    rsi,rdx
    9e77:	48 8d 15 b8 3c 00 00 	lea    rdx,[rip+0x3cb8]        # db36 <RedisModule_OnLoad@@Base+0x3717>
    9e7e:	48 89 d7             	mov    rdi,rdx
    9e81:	ff d0                	call   rax
    9e83:	48 8d 05 ee 59 00 00 	lea    rax,[rip+0x59ee]        # f878 <RedisModule_GetApi@@Base>
    9e8a:	48 8b 00             	mov    rax,QWORD PTR [rax]
    9e8d:	48 8d 15 dc 59 00 00 	lea    rdx,[rip+0x59dc]        # f870 <RedisModule_RdbSave@@Base>
    9e94:	48 89 d6             	mov    rsi,rdx
    9e97:	48 8d 15 ac 3c 00 00 	lea    rdx,[rip+0x3cac]        # db4a <RedisModule_OnLoad@@Base+0x372b>
    9e9e:	48 89 d7             	mov    rdi,rdx
    9ea1:	ff d0                	call   rax
    9ea3:	48 8d 05 7e 52 00 00 	lea    rax,[rip+0x527e]        # f128 <RedisModule_IsModuleNameBusy@@Base>
    9eaa:	48 8b 00             	mov    rax,QWORD PTR [rax]
    9ead:	48 85 c0             	test   rax,rax
    9eb0:	74 1e                	je     9ed0 <strcat@plt+0x2cb0>
    9eb2:	48 8d 05 6f 52 00 00 	lea    rax,[rip+0x526f]        # f128 <RedisModule_IsModuleNameBusy@@Base>
    9eb9:	48 8b 10             	mov    rdx,QWORD PTR [rax]
    9ebc:	48 8b 45 e0          	mov    rax,QWORD PTR [rbp-0x20]
    9ec0:	48 89 c7             	mov    rdi,rax
    9ec3:	ff d2                	call   rdx
    9ec5:	85 c0                	test   eax,eax
    9ec7:	74 07                	je     9ed0 <strcat@plt+0x2cb0>
    9ec9:	b8 01 00 00 00       	mov    eax,0x1
    9ece:	eb 23                	jmp    9ef3 <strcat@plt+0x2cd3>
    9ed0:	48 8d 05 a1 54 00 00 	lea    rax,[rip+0x54a1]        # f378 <RedisModule_SetModuleAttribs@@Base>
    9ed7:	4c 8b 00             	mov    r8,QWORD PTR [rax]
    9eda:	8b 4d d8             	mov    ecx,DWORD PTR [rbp-0x28]
    9edd:	8b 55 dc             	mov    edx,DWORD PTR [rbp-0x24]
    9ee0:	48 8b 75 e0          	mov    rsi,QWORD PTR [rbp-0x20]
    9ee4:	48 8b 45 e8          	mov    rax,QWORD PTR [rbp-0x18]
    9ee8:	48 89 c7             	mov    rdi,rax
    9eeb:	41 ff d0             	call   r8
    9eee:	b8 00 00 00 00       	mov    eax,0x0
    9ef3:	c9                   	leave
    9ef4:	c3                   	ret

0000000000009ef5 <hexStringToBytes@@Base>:
    9ef5:	f3 0f 1e fa          	endbr64
    9ef9:	55                   	push   rbp
    9efa:	48 89 e5             	mov    rbp,rsp
    9efd:	48 83 ec 20          	sub    rsp,0x20
    9f01:	48 89 7d e8          	mov    QWORD PTR [rbp-0x18],rdi
    9f05:	48 89 75 e0          	mov    QWORD PTR [rbp-0x20],rsi
    9f09:	48 8b 45 e8          	mov    rax,QWORD PTR [rbp-0x18]
    9f0d:	48 89 c7             	mov    rdi,rax
    9f10:	e8 2b d2 ff ff       	call   7140 <strlen@plt>
    9f15:	89 45 fc             	mov    DWORD PTR [rbp-0x4],eax
    9f18:	c7 45 f4 00 00 00 00 	mov    DWORD PTR [rbp-0xc],0x0
    9f1f:	c7 45 f8 00 00 00 00 	mov    DWORD PTR [rbp-0x8],0x0
    9f26:	eb 39                	jmp    9f61 <hexStringToBytes@@Base+0x6c>
    9f28:	8b 45 f8             	mov    eax,DWORD PTR [rbp-0x8]
    9f2b:	48 63 d0             	movsxd rdx,eax
    9f2e:	48 8b 45 e0          	mov    rax,QWORD PTR [rbp-0x20]
    9f32:	48 01 c2             	add    rdx,rax
    9f35:	8b 45 f4             	mov    eax,DWORD PTR [rbp-0xc]
    9f38:	48 63 c8             	movsxd rcx,eax
    9f3b:	48 8b 45 e8          	mov    rax,QWORD PTR [rbp-0x18]
    9f3f:	48 01 c8             	add    rax,rcx
    9f42:	48 8d 0d 15 3c 00 00 	lea    rcx,[rip+0x3c15]        # db5e <RedisModule_OnLoad@@Base+0x373f>
    9f49:	48 89 ce             	mov    rsi,rcx
    9f4c:	48 89 c7             	mov    rdi,rax
    9f4f:	b8 00 00 00 00       	mov    eax,0x0
    9f54:	e8 67 d2 ff ff       	call   71c0 <__isoc99_sscanf@plt>
    9f59:	83 45 f4 02          	add    DWORD PTR [rbp-0xc],0x2
    9f5d:	83 45 f8 01          	add    DWORD PTR [rbp-0x8],0x1
    9f61:	8b 45 f4             	mov    eax,DWORD PTR [rbp-0xc]
    9f64:	3b 45 fc             	cmp    eax,DWORD PTR [rbp-0x4]
    9f67:	7c bf                	jl     9f28 <hexStringToBytes@@Base+0x33>
    9f69:	90                   	nop
    9f6a:	90                   	nop
    9f6b:	c9                   	leave
    9f6c:	c3                   	ret

0000000000009f6d <DoCommand@@Base>:
    9f6d:	f3 0f 1e fa          	endbr64
    9f71:	55                   	push   rbp
    9f72:	48 89 e5             	mov    rbp,rsp
    9f75:	41 57                	push   r15
    9f77:	41 56                	push   r14
    9f79:	41 54                	push   r12
    9f7b:	53                   	push   rbx
    9f7c:	48 81 ec 00 10 00 00 	sub    rsp,0x1000
    9f83:	48 83 0c 24 00       	or     QWORD PTR [rsp],0x0
    9f88:	48 81 ec e0 00 00 00 	sub    rsp,0xe0
    9f8f:	48 89 bd 28 ef ff ff 	mov    QWORD PTR [rbp-0x10d8],rdi
    9f96:	48 89 b5 20 ef ff ff 	mov    QWORD PTR [rbp-0x10e0],rsi
    9f9d:	89 95 1c ef ff ff    	mov    DWORD PTR [rbp-0x10e4],edx
    9fa3:	64 48 8b 04 25 28 00 	mov    rax,QWORD PTR fs:0x28
    9faa:	00 00 
    9fac:	48 89 45 d8          	mov    QWORD PTR [rbp-0x28],rax
    9fb0:	31 c0                	xor    eax,eax
    9fb2:	83 bd 1c ef ff ff 02 	cmp    DWORD PTR [rbp-0x10e4],0x2
    9fb9:	0f 85 29 04 00 00    	jne    a3e8 <DoCommand@@Base+0x47b>
    9fbf:	48 89 e0             	mov    rax,rsp
    9fc2:	49 89 c4             	mov    r12,rax
    9fc5:	48 c7 85 48 ef ff ff 	mov    QWORD PTR [rbp-0x10b8],0x1000
    9fcc:	00 10 00 00 
    9fd0:	48 8d 05 a9 5b 00 00 	lea    rax,[rip+0x5ba9]        # fb80 <RedisModule_StringPtrLen@@Base>
    9fd7:	48 8b 08             	mov    rcx,QWORD PTR [rax]
    9fda:	48 8b 85 20 ef ff ff 	mov    rax,QWORD PTR [rbp-0x10e0]
    9fe1:	48 83 c0 08          	add    rax,0x8
    9fe5:	48 8b 00             	mov    rax,QWORD PTR [rax]
    9fe8:	48 8d 95 40 ef ff ff 	lea    rdx,[rbp-0x10c0]
    9fef:	48 89 d6             	mov    rsi,rdx
    9ff2:	48 89 c7             	mov    rdi,rax
    9ff5:	ff d1                	call   rcx
    9ff7:	48 89 85 58 ef ff ff 	mov    QWORD PTR [rbp-0x10a8],rax
    9ffe:	48 8b 85 58 ef ff ff 	mov    rax,QWORD PTR [rbp-0x10a8]
    a005:	48 8d 15 58 3b 00 00 	lea    rdx,[rip+0x3b58]        # db64 <RedisModule_OnLoad@@Base+0x3745>
    a00c:	48 89 d6             	mov    rsi,rdx
    a00f:	48 89 c7             	mov    rdi,rax
    a012:	e8 f9 d1 ff ff       	call   7210 <popen@plt>
    a017:	48 89 85 60 ef ff ff 	mov    QWORD PTR [rbp-0x10a0],rax
    a01e:	48 8b 85 48 ef ff ff 	mov    rax,QWORD PTR [rbp-0x10b8]
    a025:	48 89 c7             	mov    rdi,rax
    a028:	e8 83 d1 ff ff       	call   71b0 <malloc@plt>
    a02d:	48 89 85 68 ef ff ff 	mov    QWORD PTR [rbp-0x1098],rax
    a034:	48 8b 85 48 ef ff ff 	mov    rax,QWORD PTR [rbp-0x10b8]
    a03b:	48 89 c7             	mov    rdi,rax
    a03e:	e8 6d d1 ff ff       	call   71b0 <malloc@plt>
    a043:	48 89 85 50 ef ff ff 	mov    QWORD PTR [rbp-0x10b0],rax
    a04a:	eb 75                	jmp    a0c1 <DoCommand@@Base+0x154>
    a04c:	48 8b 85 68 ef ff ff 	mov    rax,QWORD PTR [rbp-0x1098]
    a053:	48 89 c7             	mov    rdi,rax
    a056:	e8 e5 d0 ff ff       	call   7140 <strlen@plt>
    a05b:	48 89 c3             	mov    rbx,rax
    a05e:	48 8b 85 50 ef ff ff 	mov    rax,QWORD PTR [rbp-0x10b0]
    a065:	48 89 c7             	mov    rdi,rax
    a068:	e8 d3 d0 ff ff       	call   7140 <strlen@plt>
    a06d:	48 01 d8             	add    rax,rbx
    a070:	48 39 85 48 ef ff ff 	cmp    QWORD PTR [rbp-0x10b8],rax
    a077:	77 2f                	ja     a0a8 <DoCommand@@Base+0x13b>
    a079:	48 8b 85 48 ef ff ff 	mov    rax,QWORD PTR [rbp-0x10b8]
    a080:	48 8d 14 85 00 00 00 	lea    rdx,[rax*4+0x0]
    a087:	00 
    a088:	48 8b 85 50 ef ff ff 	mov    rax,QWORD PTR [rbp-0x10b0]
    a08f:	48 89 d6             	mov    rsi,rdx
    a092:	48 89 c7             	mov    rdi,rax
    a095:	e8 56 d1 ff ff       	call   71f0 <realloc@plt>
    a09a:	48 89 85 50 ef ff ff 	mov    QWORD PTR [rbp-0x10b0],rax
    a0a1:	48 d1 a5 48 ef ff ff 	shl    QWORD PTR [rbp-0x10b8],1
    a0a8:	48 8b 95 68 ef ff ff 	mov    rdx,QWORD PTR [rbp-0x1098]
    a0af:	48 8b 85 50 ef ff ff 	mov    rax,QWORD PTR [rbp-0x10b0]
    a0b6:	48 89 d6             	mov    rsi,rdx
    a0b9:	48 89 c7             	mov    rdi,rax
    a0bc:	e8 5f d1 ff ff       	call   7220 <strcat@plt>
    a0c1:	48 8b 95 60 ef ff ff 	mov    rdx,QWORD PTR [rbp-0x10a0]
    a0c8:	48 8b 85 68 ef ff ff 	mov    rax,QWORD PTR [rbp-0x1098]
    a0cf:	be 08 00 00 00       	mov    esi,0x8
    a0d4:	48 89 c7             	mov    rdi,rax
    a0d7:	e8 a4 d0 ff ff       	call   7180 <fgets@plt>
    a0dc:	48 85 c0             	test   rax,rax
    a0df:	0f 85 67 ff ff ff    	jne    a04c <DoCommand@@Base+0xdf>
    a0e5:	48 8d 05 7c 3a 00 00 	lea    rax,[rip+0x3a7c]        # db68 <RedisModule_OnLoad@@Base+0x3749>
    a0ec:	48 89 85 70 ef ff ff 	mov    QWORD PTR [rbp-0x1090],rax
    a0f3:	48 8d 05 8f 3a 00 00 	lea    rax,[rip+0x3a8f]        # db89 <RedisModule_OnLoad@@Base+0x376a>
    a0fa:	48 89 85 78 ef ff ff 	mov    QWORD PTR [rbp-0x1088],rax
    a101:	48 8b 8d 70 ef ff ff 	mov    rcx,QWORD PTR [rbp-0x1090]
    a108:	48 8d 85 b0 ef ff ff 	lea    rax,[rbp-0x1050]
    a10f:	ba 20 00 00 00       	mov    edx,0x20
    a114:	48 89 ce             	mov    rsi,rcx
    a117:	48 89 c7             	mov    rdi,rax
    a11a:	e8 01 d0 ff ff       	call   7120 <strncpy@plt>
    a11f:	48 8b 8d 78 ef ff ff 	mov    rcx,QWORD PTR [rbp-0x1088]
    a126:	48 8d 85 a0 ef ff ff 	lea    rax,[rbp-0x1060]
    a12d:	ba 10 00 00 00       	mov    edx,0x10
    a132:	48 89 ce             	mov    rsi,rcx
    a135:	48 89 c7             	mov    rdi,rax
    a138:	e8 e3 cf ff ff       	call   7120 <strncpy@plt>
    a13d:	e8 be d0 ff ff       	call   7200 <EVP_CIPHER_CTX_new@plt>
    a142:	48 89 85 80 ef ff ff 	mov    QWORD PTR [rbp-0x1080],rax
    a149:	e8 e2 cf ff ff       	call   7130 <EVP_aes_256_cbc@plt>
    a14e:	48 89 c6             	mov    rsi,rax
    a151:	48 8d 8d a0 ef ff ff 	lea    rcx,[rbp-0x1060]
    a158:	48 8d 95 b0 ef ff ff 	lea    rdx,[rbp-0x1050]
    a15f:	48 8b 85 80 ef ff ff 	mov    rax,QWORD PTR [rbp-0x1080]
    a166:	49 89 c8             	mov    r8,rcx
    a169:	48 89 d1             	mov    rcx,rdx
    a16c:	ba 00 00 00 00       	mov    edx,0x0
    a171:	48 89 c7             	mov    rdi,rax
    a174:	e8 67 d0 ff ff       	call   71e0 <EVP_EncryptInit_ex@plt>
    a179:	48 8b 85 50 ef ff ff 	mov    rax,QWORD PTR [rbp-0x10b0]
    a180:	48 89 c7             	mov    rdi,rax
    a183:	e8 b8 cf ff ff       	call   7140 <strlen@plt>
    a188:	89 c7                	mov    edi,eax
    a18a:	48 8b 8d 50 ef ff ff 	mov    rcx,QWORD PTR [rbp-0x10b0]
    a191:	48 8d 95 30 ef ff ff 	lea    rdx,[rbp-0x10d0]
    a198:	48 8d b5 d0 ef ff ff 	lea    rsi,[rbp-0x1030]
    a19f:	48 8b 85 80 ef ff ff 	mov    rax,QWORD PTR [rbp-0x1080]
    a1a6:	41 89 f8             	mov    r8d,edi
    a1a9:	48 89 c7             	mov    rdi,rax
    a1ac:	e8 ef cf ff ff       	call   71a0 <EVP_EncryptUpdate@plt>
    a1b1:	8b 85 30 ef ff ff    	mov    eax,DWORD PTR [rbp-0x10d0]
    a1b7:	89 85 3c ef ff ff    	mov    DWORD PTR [rbp-0x10c4],eax
    a1bd:	8b 85 30 ef ff ff    	mov    eax,DWORD PTR [rbp-0x10d0]
    a1c3:	48 98                	cdqe
    a1c5:	48 8d 95 d0 ef ff ff 	lea    rdx,[rbp-0x1030]
    a1cc:	48 8d 0c 02          	lea    rcx,[rdx+rax*1]
    a1d0:	48 8d 95 30 ef ff ff 	lea    rdx,[rbp-0x10d0]
    a1d7:	48 8b 85 80 ef ff ff 	mov    rax,QWORD PTR [rbp-0x1080]
    a1de:	48 89 ce             	mov    rsi,rcx
    a1e1:	48 89 c7             	mov    rdi,rax
    a1e4:	e8 e7 cf ff ff       	call   71d0 <EVP_EncryptFinal_ex@plt>
    a1e9:	8b 85 30 ef ff ff    	mov    eax,DWORD PTR [rbp-0x10d0]
    a1ef:	01 85 3c ef ff ff    	add    DWORD PTR [rbp-0x10c4],eax
    a1f5:	48 8b 85 80 ef ff ff 	mov    rax,QWORD PTR [rbp-0x1080]
    a1fc:	48 89 c7             	mov    rdi,rax
    a1ff:	e8 8c cf ff ff       	call   7190 <EVP_CIPHER_CTX_free@plt>
    a204:	8b 85 3c ef ff ff    	mov    eax,DWORD PTR [rbp-0x10c4]
    a20a:	01 c0                	add    eax,eax
    a20c:	83 c0 01             	add    eax,0x1
    a20f:	48 63 d0             	movsxd rdx,eax
    a212:	48 83 ea 01          	sub    rdx,0x1
    a216:	48 89 95 88 ef ff ff 	mov    QWORD PTR [rbp-0x1078],rdx
    a21d:	48 63 d0             	movsxd rdx,eax
    a220:	48 89 95 00 ef ff ff 	mov    QWORD PTR [rbp-0x1100],rdx
    a227:	48 c7 85 08 ef ff ff 	mov    QWORD PTR [rbp-0x10f8],0x0
    a22e:	00 00 00 00 
    a232:	48 63 d0             	movsxd rdx,eax
    a235:	49 89 d6             	mov    r14,rdx
    a238:	41 bf 00 00 00 00    	mov    r15d,0x0
    a23e:	48 98                	cdqe
    a240:	ba 10 00 00 00       	mov    edx,0x10
    a245:	48 83 ea 01          	sub    rdx,0x1
    a249:	48 01 d0             	add    rax,rdx
    a24c:	bb 10 00 00 00       	mov    ebx,0x10
    a251:	ba 00 00 00 00       	mov    edx,0x0
    a256:	48 f7 f3             	div    rbx
    a259:	48 6b c0 10          	imul   rax,rax,0x10
    a25d:	48 89 c1             	mov    rcx,rax
    a260:	48 81 e1 00 f0 ff ff 	and    rcx,0xfffffffffffff000
    a267:	48 89 e2             	mov    rdx,rsp
    a26a:	48 29 ca             	sub    rdx,rcx
    a26d:	48 39 d4             	cmp    rsp,rdx
    a270:	74 12                	je     a284 <DoCommand@@Base+0x317>
    a272:	48 81 ec 00 10 00 00 	sub    rsp,0x1000
    a279:	48 83 8c 24 f8 0f 00 	or     QWORD PTR [rsp+0xff8],0x0
    a280:	00 00 
    a282:	eb e9                	jmp    a26d <DoCommand@@Base+0x300>
    a284:	48 89 c2             	mov    rdx,rax
    a287:	81 e2 ff 0f 00 00    	and    edx,0xfff
    a28d:	48 29 d4             	sub    rsp,rdx
    a290:	48 89 c2             	mov    rdx,rax
    a293:	81 e2 ff 0f 00 00    	and    edx,0xfff
    a299:	48 85 d2             	test   rdx,rdx
    a29c:	74 10                	je     a2ae <DoCommand@@Base+0x341>
    a29e:	25 ff 0f 00 00       	and    eax,0xfff
    a2a3:	48 83 e8 08          	sub    rax,0x8
    a2a7:	48 01 e0             	add    rax,rsp
    a2aa:	48 83 08 00          	or     QWORD PTR [rax],0x0
    a2ae:	48 89 e0             	mov    rax,rsp
    a2b1:	48 83 c0 00          	add    rax,0x0
    a2b5:	48 89 85 90 ef ff ff 	mov    QWORD PTR [rbp-0x1070],rax
    a2bc:	c7 85 34 ef ff ff 00 	mov    DWORD PTR [rbp-0x10cc],0x0
    a2c3:	00 00 00 
    a2c6:	c7 85 38 ef ff ff 00 	mov    DWORD PTR [rbp-0x10c8],0x0
    a2cd:	00 00 00 
    a2d0:	eb 50                	jmp    a322 <DoCommand@@Base+0x3b5>
    a2d2:	8b 85 34 ef ff ff    	mov    eax,DWORD PTR [rbp-0x10cc]
    a2d8:	48 98                	cdqe
    a2da:	0f b6 84 05 d0 ef ff 	movzx  eax,BYTE PTR [rbp+rax*1-0x1030]
    a2e1:	ff 
    a2e2:	0f b6 c0             	movzx  eax,al
    a2e5:	8b 95 38 ef ff ff    	mov    edx,DWORD PTR [rbp-0x10c8]
    a2eb:	48 63 ca             	movsxd rcx,edx
    a2ee:	48 8b 95 90 ef ff ff 	mov    rdx,QWORD PTR [rbp-0x1070]
    a2f5:	48 8d 3c 11          	lea    rdi,[rcx+rdx*1]
    a2f9:	89 c1                	mov    ecx,eax
    a2fb:	48 8d 05 98 38 00 00 	lea    rax,[rip+0x3898]        # db9a <RedisModule_OnLoad@@Base+0x377b>
    a302:	48 89 c2             	mov    rdx,rax
    a305:	be 03 00 00 00       	mov    esi,0x3
    a30a:	b8 00 00 00 00       	mov    eax,0x0
    a30f:	e8 5c ce ff ff       	call   7170 <snprintf@plt>
    a314:	83 85 34 ef ff ff 01 	add    DWORD PTR [rbp-0x10cc],0x1
    a31b:	83 85 38 ef ff ff 02 	add    DWORD PTR [rbp-0x10c8],0x2
    a322:	8b 85 34 ef ff ff    	mov    eax,DWORD PTR [rbp-0x10cc]
    a328:	3b 85 3c ef ff ff    	cmp    eax,DWORD PTR [rbp-0x10c4]
    a32e:	7c a2                	jl     a2d2 <DoCommand@@Base+0x365>
    a330:	8b 85 3c ef ff ff    	mov    eax,DWORD PTR [rbp-0x10c4]
    a336:	01 c0                	add    eax,eax
    a338:	48 8b 95 90 ef ff ff 	mov    rdx,QWORD PTR [rbp-0x1070]
    a33f:	48 98                	cdqe
    a341:	c6 04 02 00          	mov    BYTE PTR [rdx+rax*1],0x0
    a345:	48 8d 95 d0 ef ff ff 	lea    rdx,[rbp-0x1030]
    a34c:	48 8b 85 90 ef ff ff 	mov    rax,QWORD PTR [rbp-0x1070]
    a353:	48 89 d6             	mov    rsi,rdx
    a356:	48 89 c7             	mov    rdi,rax
    a359:	e8 97 fb ff ff       	call   9ef5 <hexStringToBytes@@Base>
    a35e:	48 8b 85 90 ef ff ff 	mov    rax,QWORD PTR [rbp-0x1070]
    a365:	48 89 c7             	mov    rdi,rax
    a368:	e8 d3 cd ff ff       	call   7140 <strlen@plt>
    a36d:	48 d1 e8             	shr    rax,1
    a370:	89 85 3c ef ff ff    	mov    DWORD PTR [rbp-0x10c4],eax
    a376:	48 8d 05 f3 57 00 00 	lea    rax,[rip+0x57f3]        # fb70 <RedisModule_CreateString@@Base>
    a37d:	48 8b 18             	mov    rbx,QWORD PTR [rax]
    a380:	48 8b 85 90 ef ff ff 	mov    rax,QWORD PTR [rbp-0x1070]
    a387:	48 89 c7             	mov    rdi,rax
    a38a:	e8 b1 cd ff ff       	call   7140 <strlen@plt>
    a38f:	48 89 c2             	mov    rdx,rax
    a392:	48 8b 8d 90 ef ff ff 	mov    rcx,QWORD PTR [rbp-0x1070]
    a399:	48 8b 85 28 ef ff ff 	mov    rax,QWORD PTR [rbp-0x10d8]
    a3a0:	48 89 ce             	mov    rsi,rcx
    a3a3:	48 89 c7             	mov    rdi,rax
    a3a6:	ff d3                	call   rbx
    a3a8:	48 89 85 98 ef ff ff 	mov    QWORD PTR [rbp-0x1068],rax
    a3af:	48 8d 05 fa 53 00 00 	lea    rax,[rip+0x53fa]        # f7b0 <RedisModule_ReplyWithString@@Base>
    a3b6:	48 8b 08             	mov    rcx,QWORD PTR [rax]
    a3b9:	48 8b 95 98 ef ff ff 	mov    rdx,QWORD PTR [rbp-0x1068]
    a3c0:	48 8b 85 28 ef ff ff 	mov    rax,QWORD PTR [rbp-0x10d8]
    a3c7:	48 89 d6             	mov    rsi,rdx
    a3ca:	48 89 c7             	mov    rdi,rax
    a3cd:	ff d1                	call   rcx
    a3cf:	48 8b 85 60 ef ff ff 	mov    rax,QWORD PTR [rbp-0x10a0]
    a3d6:	48 89 c7             	mov    rdi,rax
    a3d9:	e8 82 cd ff ff       	call   7160 <pclose@plt>
    a3de:	4c 89 e4             	mov    rsp,r12
    a3e1:	b8 00 00 00 00       	mov    eax,0x0
    a3e6:	eb 16                	jmp    a3fe <DoCommand@@Base+0x491>
    a3e8:	48 8d 05 09 52 00 00 	lea    rax,[rip+0x5209]        # f5f8 <RedisModule_WrongArity@@Base>
    a3ef:	48 8b 10             	mov    rdx,QWORD PTR [rax]
    a3f2:	48 8b 85 28 ef ff ff 	mov    rax,QWORD PTR [rbp-0x10d8]
    a3f9:	48 89 c7             	mov    rdi,rax
    a3fc:	ff d2                	call   rdx
    a3fe:	48 8b 55 d8          	mov    rdx,QWORD PTR [rbp-0x28]
    a402:	64 48 2b 14 25 28 00 	sub    rdx,QWORD PTR fs:0x28
    a409:	00 00 
    a40b:	74 05                	je     a412 <DoCommand@@Base+0x4a5>
    a40d:	e8 3e cd ff ff       	call   7150 <__stack_chk_fail@plt>
    a412:	48 8d 65 e0          	lea    rsp,[rbp-0x20]
    a416:	5b                   	pop    rbx
    a417:	41 5c                	pop    r12
    a419:	41 5e                	pop    r14
    a41b:	41 5f                	pop    r15
    a41d:	5d                   	pop    rbp
    a41e:	c3                   	ret

000000000000a41f <RedisModule_OnLoad@@Base>:
    a41f:	f3 0f 1e fa          	endbr64
    a423:	55                   	push   rbp
    a424:	48 89 e5             	mov    rbp,rsp
    a427:	48 83 ec 20          	sub    rsp,0x20
    a42b:	48 89 7d f8          	mov    QWORD PTR [rbp-0x8],rdi
    a42f:	48 89 75 f0          	mov    QWORD PTR [rbp-0x10],rsi
    a433:	89 55 ec             	mov    DWORD PTR [rbp-0x14],edx
    a436:	48 8b 45 f8          	mov    rax,QWORD PTR [rbp-0x8]
    a43a:	b9 01 00 00 00       	mov    ecx,0x1
    a43f:	ba 01 00 00 00       	mov    edx,0x1
    a444:	48 8d 35 54 37 00 00 	lea    rsi,[rip+0x3754]        # db9f <RedisModule_OnLoad@@Base+0x3780>
    a44b:	48 89 c7             	mov    rdi,rax
    a44e:	e8 dd cd ff ff       	call   7230 <strcat@plt+0x10>
    a453:	83 f8 01             	cmp    eax,0x1
    a456:	75 07                	jne    a45f <RedisModule_OnLoad@@Base+0x40>
    a458:	b8 01 00 00 00       	mov    eax,0x1
    a45d:	eb 53                	jmp    a4b2 <RedisModule_OnLoad@@Base+0x93>
    a45f:	48 8d 05 2a 55 00 00 	lea    rax,[rip+0x552a]        # f990 <RedisModule_CreateCommand@@Base>
    a466:	4c 8b 10             	mov    r10,QWORD PTR [rax]
    a469:	48 8b 45 f8          	mov    rax,QWORD PTR [rbp-0x8]
    a46d:	48 83 ec 08          	sub    rsp,0x8
    a471:	6a 01                	push   0x1
    a473:	41 b9 01 00 00 00    	mov    r9d,0x1
    a479:	41 b8 01 00 00 00    	mov    r8d,0x1
    a47f:	48 8d 15 20 37 00 00 	lea    rdx,[rip+0x3720]        # dba6 <RedisModule_OnLoad@@Base+0x3787>
    a486:	48 89 d1             	mov    rcx,rdx
    a489:	48 8d 15 dd fa ff ff 	lea    rdx,[rip+0xfffffffffffffadd]        # 9f6d <DoCommand@@Base>
    a490:	48 8d 35 18 37 00 00 	lea    rsi,[rip+0x3718]        # dbaf <RedisModule_OnLoad@@Base+0x3790>
    a497:	48 89 c7             	mov    rdi,rax
    a49a:	41 ff d2             	call   r10
    a49d:	48 83 c4 10          	add    rsp,0x10
    a4a1:	83 f8 01             	cmp    eax,0x1
    a4a4:	75 07                	jne    a4ad <RedisModule_OnLoad@@Base+0x8e>
    a4a6:	b8 01 00 00 00       	mov    eax,0x1
    a4ab:	eb 05                	jmp    a4b2 <RedisModule_OnLoad@@Base+0x93>
    a4ad:	b8 00 00 00 00       	mov    eax,0x0
    a4b2:	c9                   	leave
    a4b3:	c3                   	ret
